(dp0
V\u8000
p1
I23377556
sV\u6d89
p2
I64490159
sV\u8c08
p3
I185161087
sV\u4f0a
p4
I71144959
sV\u8599
p5
I1
sV\u4e9f
p6
I2821387
sV\u6d1e
p7
I60278837
sV\u54a3
p8
I591675
sV\u7322
p9
I228958
sV\u7f2a
p10
I2130951
sV\u6cb3
p11
I183567094
sV\u4e34
p12
I185010293
sV\u72b7
p13
I1457775
sV\u5438
p14
I149344375
sV\u78bb
p15
I1
sV\u5a3c
p16
I2318618
sV\u7ebf
p17
I941862288
sV\u53cd
p18
I433617911
sV\u724c
p19
I271901579
sV\u96cf
p20
I3362015
sV\u59d1
p21
I44967358
sV\u5362
p22
I8015701
sV\u77e5
p23
I938614554
sV\u9664
p24
I349942879
sV\u5f6a
p25
I3046317
sV\u52f7
p26
I1
sV\u95f9
p27
I52736797
sV\u8986
p28
I43976189
sV\u8f8a
p29
I776022
sV\u760f
p30
I2
sV\u5890
p31
I1
sV\u5e94
p32
I954257921
sV\u8e1f
p33
I159386
sV\u5121
p34
I1561975
sV\u5d29
p35
I12220094
sV\u82ac
p36
I12678074
sV\u51b6
p37
I11013641
sV\u9abc
p38
I2863235
sV\u6fca
p39
I1
sV\u56e4
p40
I1089041
sV\u5ce8
p41
I3659269
sV\u62ec
p42
I153148222
sV\u68f0
p43
I2
sV\u4f75
p44
I1
sV\u6ef4
p45
I41841037
sV\u987b
p46
I194115807
sV\u5b7d
p47
I3006447
sV\u9e7f
p48
I9715142
sV\u6c89
p49
I128441515
sV\u4e0a
p50
L3182586574L
sV\u540e
p51
I1371027589
sV\u7891
p52
I14313325
sV\u9910
p53
I112550391
sV\u6016
p54
I45361712
sV\u8499
p55
I65314374
sV\u55a3
p56
I3
sV\u67af
p57
I14043734
sV\u4f34
p58
I98907941
sV\u73b7
p59
I1088180
sV\u9036
p60
I342109
sV\u79bb
p61
I381774437
sV\u7fbf
p62
I1
sV\u58d1
p63
I2023416
sV\u7950
p64
I1
sV\u7f54
p65
I515173
sV\u76e5
p66
I494043
sV\u5e6a
p67
I1
sV\u88f1
p68
I421461
sV\u53f7
p69
I486605316
sV\u7076
p70
I3735058
sV\u59fb
p71
I41025938
sV\u5fff
p72
I3281948
sV\u8282
p73
I500606711
sV\u538c
p74
I34506790
sV\u948e
p75
I202619
sV\u8317
p76
I1342216
sV\u891b
p77
I609522
sV\u5021
p78
I18001289
sV\u71a0
p79
I2000638
sV\u9523
p80
I3970401
sV\u7a3d
p81
I8853248
sV\u62c2
p82
I4926854
sV\u8c49
p83
I427188
sV\u514b
p84
I257572599
sV\u574f
p85
I102387915
sV\u9e55
p86
I68261
sV\u80d6
p87
I20494473
sV\u695b
p88
I1
sV\u51e0
p89
I581621589
sV\u5de8
p90
I113016881
sV\u8d73
p91
I493208
sV\u7bfc
p92
I34395
sV\u9f7f
p93
I24468585
sV\u8200
p94
I134701
sV\u8404
p95
I19000068
sV\u7b91
p96
I1
sV\u6316
p97
I21575369
sV\u56a3
p98
I9013143
sV\u7b26
p99
I110095092
sV\u62ab
p100
I24347514
sV\u872e
p101
I121748
sV\u953a
p102
I351116
sV\u9f3e
p103
I1009328
sV\u6240
p104
I1408542140
sV\u6444
p105
I129580484
sV\u704c
p106
I53219238
sV\u67d9
p107
I4
sV\u4f5e
p108
I225626
sV\u5162
p109
I4658873
sV\u5b66
p110
L2607906938L
sV\u7fe9
p111
I8291103
sV\u9e68
p112
I1
sV\u81ed
p113
I17327996
sV\u676e
p114
I124605
sV\u8bf1
p115
I46018929
sV\u8df5
p116
I58128587
sV\u6603
p117
I8
sV\u8182
p118
I109592
sV\u6807
p119
I780007150
sV\u4e88
p120
I81884270
sV\u8d8a
p121
I286210145
sV\u740f
p122
I221241
sV\u9992
p123
I6099854
sV\u5c94
p124
I2953537
sV\u8017
p125
I48769067
sV\u8c1f
p126
I100317
sV\u5321
p127
I1277885
sV\u5f29
p128
I2453770
sV\u7ea8
p129
I173471
sV\u80ac
p130
I1
sV\u61c2
p131
I69113036
sV\u914d
p132
I354851596
sV\u9b51
p133
I362049
sV\u79d2
p134
I24487819
sV\u83d6
p135
I339931
sV\u6a5b
p136
I3
sV\u6c5f
p137
I345100075
sV\u8fde
p138
I411638989
sV\u7663
p139
I10786515
sV\u60ec
p140
I3115938
sV\u76f8
p141
I1272383343
sV\u9a7b
p142
I26531227
sV\u597d
p143
I1776979340
sV\u9c7f
p144
I1721595
sV\u6485
p145
I554030
sV\u6e89
p146
I2895310
sV\u560e
p147
I7597415
sV\u7a91
p148
I2360597
sV\u9b10
p149
I1
sV\u7c95
p150
I2877308
sV\u6216
p151
I305681769
sV\u57a3
p152
I459941
sV\u94a5
p153
I14782357
sV\u7c2a
p154
I671584
sV\u65af
p155
I316937444
sV\u6fb3
p156
I41537144
sV\u9e3e
p157
I133633
sV\u714c
p158
I18349930
sV\u7b50
p159
I1330272
sV\u66d9
p160
I4644616
sV\u4e5e
p161
I9302686
sV\u72e1
p162
I6369757
sV\u5062
p163
I1
sV\u7ee9
p164
I113845788
sV\u80ed
p165
I2226919
sV\u666e
p166
I217786249
sV\u4ff3
p167
I45863
sV\u96f9
p168
I963278
sV\u5bfb
p169
I121158630
sV\u4f88
p170
I5736887
sV\u8c8a
p171
I1
sV\u518c
p172
I824557389
sV\u7f13
p173
I91416958
sV\u6798
p174
I7
sV\u699c
p175
I53352769
sV\u8d1f
p176
I234899162
sV\u73a0
p177
I1
sV\u75a4
p178
I5252069
sV\u9927
p179
I1
sV\u6a31
p180
I12449029
sV\u8bb0
p181
I772663997
sV\u8db4
p182
I6154473
sV\u5ebe
p183
I49138
sV\u8e49
p184
I519613
sV\u6cca
p185
I12333054
sV\u904d
p186
I68396148
sV\u76ce
p187
I3510020
sV\u5f53
p188
I1012118235
sV\u78d2
p189
I1
sV\u53e0
p190
I12714701
sV\u7763
p191
I122719369
sV\u90e2
p192
I7
sV\u55e4
p193
I1630036
sV\u7967
p194
I2
sV\u9ae6
p195
I4163184
sV\u836b
p196
I3606933
sV\u8f73
p197
I120956
sV\u9177
p198
I43839352
sV\u77f8
p199
I339231
sV\u8204
p200
I6
sV\u6989
p201
I243931
sV\u7b95
p202
I257121
sV\u631a
p203
I7166742
sV\u50a3
p204
I769472
sV\u7722
p205
I1
sV\u5ea7
p206
I178169293
sV\u68b3
p207
I7837145
sV\u5038
p208
I1
sV\u5e3c
p209
I1065608
sV\u7abf
p210
I1328250
sV\u80c3
p211
I20576778
sV\u6848
p212
I408883391
sV\u764c
p213
I25448802
sV\u98d3
p214
I5072180
sV\u8058
p215
I117228291
sV\u75e1
p216
I1
sV\u73e5
p217
I5
sV\u79e9
p218
I18617657
sV\u5b6a
p219
I1034314
sV\u8df1
p220
I3
sV\u8bf5
p221
I7005300
sV\u56f7
p222
I2
sV\u5cfb
p223
I9022413
sV\u8782
p224
I3173887
sV\u918e
p225
I1
sV\u5c90
p226
I320770
sV\u8c1b
p227
I2345801
sV\u6e9c
p228
I17871717
sV\u5929
p229
I1712326294
sV\u672d
p230
I1531517
sV\u6d31
p231
I1047720
sV\u90b8
p232
I1927412
sV\u59be
p233
I2293716
sV\u6dc6
p234
I2238928
sV\u544b
p235
I381870
sV\u71ce
p236
I1465808
sV\u7fd2
p237
I1
sV\u6657
p238
I83457
sV\u6c5b
p239
I3357598
sV\u89de
p240
I102846
sV\u52e4
p241
I37684610
sV\u846b
p242
I5515899
sV\u826f
p243
I171896989
sV\u6cf0
p244
I50401635
sV\u9677
p245
I54301185
sV\u5179
p246
I5662882
sV\u7efc
p247
I135979081
sV\u9a7f
p248
I7072128
sV\u8500
p249
I2
sV\u8304
p250
I9436767
sV\u7c91
p251
I722808
sV\u7a95
p252
I2215289
sV\u621a
p253
I10205766
sV\u94a1
p254
I284400
sV\u7622
p255
I329861
sV\u5fa7
p256
I2
sV\u7c26
p257
I4
sV\u65ab
p258
I12
sV\u5f3c
p259
I132319
sV\u81c3
p260
I985031
sV\u8fc7
p261
I1853327731
sV\u7b54
p262
I212904069
sV\u60d9
p263
I1
sV\u8158
p264
I1
sV\u72e5
p265
I2
sV\u5c66
p266
I14
sV\u9968
p267
I811398
sV\u5a6a
p268
I4549976
sV\u86ed
p269
I327764
sV\u6e72
p270
I1
sV\u7476
p271
I3726310
sV\u727a
p272
I14801962
sV\u5bff
p273
I34284345
sV\u8682
p274
I11035053
sV\u8a8a
p275
I166732
sV\u9e92
p276
I4105873
sV\u8717
p277
I4049560
sV\u4e1d
p278
I124358896
sV\u6f9c
p279
I6642644
sV\u5421
p280
I398045
sV\u662d
p281
I4992153
sV\u4eb2
p282
I279205852
sV\u6a35
p283
I1014151
sV\u8bb4
p284
I451073
sV\u54b6
p285
I1
sV\u6cc6
p286
I2
sV\u964d
p287
I166711708
sV\u534f
p288
I244966451
sV\u5953
p289
I1
sV\u7ed2
p290
I11935809
sV\u84d6
p291
I254969
sV\u4fdc
p292
I1
sV\u53e4
p293
I203817315
sV\u9ce6
p294
I1
sV\u59e8
p295
I11237540
sV\u856b
p296
I1
sV\u67ec
p297
I2269742
sV\u836f
p298
I294053272
sV\u5e7d
p299
I52504543
sV\u7ffc
p300
I25848521
sV\u6781
p301
I319092404
sV\u8004
p302
I165859
sV\u6b89
p303
I1973147
sV\u4e9b
p304
I828035644
sV\u611a
p305
I12776647
sV\u52a3
p306
I24494208
sV\u60af
p307
I3173304
sV\u4e30
p308
I109840265
sV\u8d32
p309
I116738
sV\u5238
p310
I103491070
sV\u7ebb
p311
I1
sV\u5c3c
p312
I110003160
sV\u5fd1
p313
I2306499
sV\u9ad3
p314
I7601191
sV\u8258
p315
I6211847
sV\u71e5
p316
I19141564
sV\u5f66
p317
I402062
sV\u636e
p318
I509192996
sV\u7b7e
p319
I146760379
sV\u8f86
p320
I52166357
sV\u548c
p321
I480200826
sV\u5e90
p322
I4336147
sV\u6298
p323
I107454522
sV\u7aa8
p324
I207652
sV\u6f31
p325
I1911802
sV\u88b4
p326
I4
sV\u5bbe
p327
I60870491
sV\u65c2
p328
I1
sV\u69ca
p329
I2
sV\u954d
p330
I2188742
sV\u504f
p331
I61636603
sV\u73ce
p332
I1
sV\u9f51
p333
I119111
sV\u9955
p334
I1051151
sV\u6e5b
p335
I8506949
sV\u8bde
p336
I39843036
sV\u56e0
p337
I816074342
sV\u866b
p338
I52316905
sV\u72f8
p339
I8387312
sV\u987f
p340
I85857599
sV\u8700
p341
I5373903
sV\u950c
p342
I3599018
sV\u520e
p343
I447809
sV\u9f10
p344
I2
sV\u9914
p345
I4
sV\u8299
p346
I11880436
sV\u4f9b
p347
I639700945
sV\u7422
p348
I5265806
sV\u67ab
p349
I9178769
sV\u4f30
p350
I80056138
sV\u8c32
p351
I633853
sV\u9636
p352
I114456556
sV\u79bf
p353
I1
sV\u6740
p354
I224836258
sV\u54cd
p355
I254998363
sV\u754c
p356
I592867436
sV\u91cf
p357
I877494475
sV\u7f50
p358
I11359529
sV\u58d5
p359
I926257
sV\u62d9
p360
I3988858
sV\u8d5c
p361
I2
sV\u9760
p362
I100780676
sV\u5462
p363
I23288382
sV\u626e
p364
I34915848
sV\u6c72
p365
I2193626
sV\u55f7
p366
I3611580
sV\u5ffb
p367
I136443
sV\u59ff
p368
I35052498
sV\u8482
p369
I17855540
sV\u770b
p370
I1748791576
sV\u5f90
p371
I22603512
sV\u8517
p372
I1877702
sV\u6398
p373
I19781038
sV\u77a0
p374
I1865810
sV\u5025
p375
I2
sV\u5a29
p376
I2227344
sV\u642d
p377
I44933228
sV\u8fb0
p378
I15225573
sV\u7239
p379
I11646501
sV\u5abe
p380
I309350
sV\u64c2
p381
I3799243
sV\u68ca
p382
I1
sV\u72ce
p383
I3
sV\u9e51
p384
I536855
sV\u5b53
p385
I56769
sV\u80da
p386
I2843602
sV\u57e0
p387
I2800727
sV\u94e2
p388
I386206
sV\u51e4
p389
I27962996
sV\u5be8
p390
I7466237
sV\u65ec
p391
I13610779
sV\u816f
p392
I1
sV\u4e71
p393
I118022739
sV\u997f
p394
I14076792
sV\u7b8d
p395
I493366
sV\u5d0e
p396
I3264407
sV\u9010
p397
I89881806
sV\u9614
p398
I26633663
sV\u651e
p399
I3
sV\u7126
p400
I68398126
sV\u6eaf
p401
I3701269
sV\u8d2e
p402
I5130615
sV\u5c38
p403
I28603785
sV\u76bf
p404
I1991342
sV\u6840
p405
I768606
sV\u6e44
p406
I542506
sV\u82c7
p407
I1600531
sV\u6448
p408
I330690
sV\u9ecf
p409
I2949651
sV\u51d1
p410
I13291740
sV\u94d3
p411
I2
sV\u7654
p412
I147101
sV\u6dd9
p413
I646206
sV\u4f5a
p414
I60160
sV\u5b62
p415
I2414265
sV\u7fe5
p416
I16
sV\u9e64
p417
I3253950
sV\u576a
p418
I6691690
sV\u8bed
p419
I628183144
sV\u6d6e
p420
I45967800
sV\u6372
p421
I1
sV\u50fb
p422
I5688646
sV\u56ff
p423
I305208
sV\u5f25
p424
I20146007
sV\u7ea4
p425
I38759205
sV\u74a8
p426
I3048687
sV\u6735
p427
I35091432
sV\u9cb8
p428
I1796860
sV\u8941
p429
I485004
sV\u6bc2
p430
I618994
sV\u8549
p431
I5260830
sV\u9b4d
p432
I375457
sV\u5453
p433
I1068935
sV\u665f
p434
I149337
sV\u7267
p435
I27775895
sV\u54e8
p436
I6621795
sV\u886b
p437
I15816891
sV\u97ea
p438
I119111
sV\u60f0
p439
I3173086
sV\u8473
p440
I135298
sV\u66f4
p441
I884045796
sV\u9a77
p442
I80550
sV\u72fc
p443
I30239485
sV\u6881
p444
I20424653
sV\u6e85
p445
I3789778
sV\u7a8d
p446
I7434334
sV\u5212
p447
I306463143
sV\u6816
p448
I3933102
sV\u6e1a
p449
I190513
sV\u829d
p450
I19497422
sV\u641e
p451
I59273054
sV\u98a1
p452
I1
sV\u94a9
p453
I7059495
sV\u69ab
p454
I1
sV\u762a
p455
I1252280
sV\u8c2e
p456
I3
sV\u77bf
p457
I268081
sV\u8dc3
p458
I49203696
sV\u4ec5
p459
I209831473
sV\u83c7
p460
I6699811
sV\u6548
p461
I467714189
sV\u7b4c
p462
I1
sV\u8d58
p463
I2801517
sV\u835c
p464
I2
sV\u5a62
p465
I2644764
sV\u7ee5
p466
I349757
sV\u566a
p467
I13721209
sV\u4fef
p468
I7927481
sV\u80f1
p469
I1920435
sV\u51fb
p470
I585445911
sV\u747e
p471
I409426
sV\u4f84
p472
I4770187
sV\u6307
p473
I528322577
sV\u8086
p474
I12677583
sV\u868a
p475
I7036040
sV\u5b8c
p476
I571755444
sV\u5821
p477
I22204464
sV\u7fa4
p478
I217076485
sV\u5429
p479
I7834469
sV\u8bac
p480
I7
sV\u6031
p481
I2
sV\u6635
p482
I11934705
sV\u723d
p483
I31872180
sV\u60c6
p484
I2333622
sV\u594b
p485
I70020013
sV\u9051
p486
I367125
sV\u72d2
p487
I658936
sV\u9655
p488
I28326425
sV\u675f
p489
I103687078
sV\u5fe4
p490
I247194
sV\u90e6
p491
I64107
sV\u55e8
p492
I1102092
sV\u96ea
p493
I94311269
sV\u8f6f
p494
I869349382
sV\u67f4
p495
I16014951
sV\u5c79
p496
I1785729
sV\u527d
p497
I1246692
sV\u6b81
p498
I2
sV\u8a00
p499
I652528456
sV\u6d85
p500
I2632306
sV\u8c04
p501
I645967
sV\u6789
p502
I7177293
sV\u7391
p503
I875157
sV\u5112
p504
I8553071
sV\u8f99
p505
I3123293
sV\u819d
p506
I9036116
sV\u8132
p507
I87639
sV\u5e38
p508
I779231824
sV\u503c
p509
I294855953
sV\u973e
p510
I1461007
sV\u9acb
p511
I176949
sV\u9ccf
p512
I136768
sV\u53d1
p513
L3472143808L
sV\u7be1
p514
I2685127
sV\u5962
p515
I13399814
sV\u5366
p516
I10350350
sV\u77e9
p517
I15961599
sV\u9668
p518
I2390619
sV\u556a
p519
I3606843
sV\u6f6e
p520
I82244036
sV\u83f1
p521
I10782661
sV\u777e
p522
I2287767
sV\u8386
p523
I110461
sV\u7a0b
p524
I1019931448
sV\u9192
p525
I103156626
sV\u5494
p526
I3606372
sV\u4f19
p527
I110970297
sV\u6e98
p528
I3
sV\u821b
p529
I2
sV\u7aa0
p530
I145973
sV\u9e23
p531
I20928297
sV\u7ca4
p532
I13530203
sV\u692d
p533
I2714299
sV\u4fae
p534
I8532948
sV\u84b4
p535
I68766
sV\u5bb6
p536
L2209990833L
sV\u9eb8
p537
I477403
sV\u4e43
p538
I21193329
sV\u8d45
p539
I382513
sV\u63c6
p540
I8
sV\u8749
p541
I3041590
sV\u5c4f
p542
I107899088
sV\u7fce
p543
I311116
sV\u9555
p544
I2
sV\u4ed8
p545
I169106748
sV\u625b
p546
I1311171
sV\u8dda
p547
I1090574
sV\u5ae0
p548
I1
sV\u95ea
p549
I100002257
sV\u68ec
p550
I1
sV\u9877
p551
I6802391
sV\u5f79
p552
I20219144
sV\u7ef8
p553
I7690440
sV\u517d
p554
I64460320
sV\u6c85
p555
I237224
sV\u8708
p556
I1244953
sV\u788d
p557
I38899912
sV\u5012
p558
I153018785
sV\u809d
p559
I28160240
sV\u9aa1
p560
I1648352
sV\u9ca5
p561
I92516
sV\u742a
p562
I4550713
sV\u6daf
p563
I30014155
sV\u8e2e
p564
I493698
sV\u67b3
p565
I96094
sV\u5f38
p566
I1
sV\u73bb
p567
I45758471
sV\u6748
p568
I304644
sV\u7350
p569
I154675
sV\u7554
p570
I5248407
sV\u60dd
p571
I2
sV\u6e6e
p572
I1277253
sV\u82f1
p573
I426154368
sV\u7a76
p574
I386150013
sV\u90fd
p575
I1029160938
sV\u767e
p576
I330994106
sV\u8882
p577
I1236657
sV\u7b0b
p578
I3305404
sV\u5594
p579
I1519460
sV\u4e19
p580
I10606632
sV\u831b
p581
I42459
sV\u4eae
p582
I168751706
sV\u4f43
p583
I357585
sV\u68c2
p584
I454519
sV\u62c6
p585
I28363868
sV\u7ece
p586
I14121497
sV\u4fd8
p587
I6394873
sV\u86de
p588
I39724
sV\u7f63
p589
I1
sV\u7167
p590
I337514386
sV\u9977
p591
I486849
sV\u957f
p592
I1106536733
sV\u8c00
p593
I169409
sV\u7591
p594
I151051373
sV\u7f22
p595
I355196
sV\u6cab
p596
I11887267
sV\u732a
p597
I50565923
sV\u7eb7
p598
I94139768
sV\u6c40
p599
I935480
sV\u6a44
p600
I4254135
sV\u86c7
p601
I13310477
sV\u5fcd
p602
I88984842
sV\u55d1
p603
I119432
sV\u67dd
p604
I4
sV\u5f62
p605
I466503137
sV\u5566
p606
I16877961
sV\u9068
p607
I1730838
sV\u8fed
p608
I7727393
sV\u696e
p609
I4
sV\u5ef7
p610
I17451669
sV\u52ff
p611
I18399506
sV\u8f82
p612
I1
sV\u6607
p613
I3
sV\u7c0b
p614
I1
sV\u5490
p615
I10612129
sV\u821f
p616
I21104157
sV\u8eac
p617
I4849907
sV\u96bc
p618
I258942
sV\u8d41
p619
I18788273
sV\u6fc2
p620
I74720
sV\u5c4b
p621
I110803382
sV\u9551
p622
I5203191
sV\u8dd6
p623
I7
sV\u645b
p624
I1
sV\u8bda
p625
I111684228
sV\u8c6b
p626
I24881052
sV\u62f4
p627
I288137
sV\u5979
p628
I679470200
sV\u76fc
p629
I14426331
sV\u6c81
p630
I1370451
sV\u6089
p631
I72126538
sV\u9510
p632
I25805921
sV\u4f97
p633
I576503
sV\u869d
p634
I433820
sV\u9ca1
p635
I39112
sV\u59a3
p636
I61397
sV\u9aa5
p637
I582678
sV\u7426
p638
I282677
sV\u722a
p639
I6450080
sV\u5938
p640
I18661076
sV\u903e
p641
I4905632
sV\u6148
p642
I20132671
sV\u54d1
p643
I9874682
sV\u66dd
p644
I25821948
sV\u5e62
p645
I3631997
sV\u7ae5
p646
I100881796
sV\u5466
p647
I541682
sV\u70e9
p648
I1783728
sV\u526a
p649
I24549753
sV\u686e
p650
I1
sV\u7a7a
p651
I571132865
sV\u707e
p652
I45457934
sV\u828a
p653
I2152940
sV\u7b0f
p654
I2
sV\u679c
p655
I1002796373
sV\u5a25
p656
I2438133
sV\u5029
p657
I5151905
sV\u71a8
p658
I1038524
sV\u6e2d
p659
I566175
sV\u85b0
p660
I2810241
sV\u83b4
p661
I500500
sV\u8c41
p662
I5501348
sV\u6ec2
p663
I412257
sV\u5d4b
p664
I1460900
sV\u62ca
p665
I61409
sV\u76d2
p666
I36899989
sV\u655b
p667
I6485424
sV\u635f
p668
I105454527
sV\u80de
p669
I42398160
sV\u9ee2
p670
I154530
sV\u5be4
p671
I2
sV\u8d6b
p672
I19316641
sV\u65f0
p673
I12
sV\u63f4
p674
I42477598
sV\u79f8
p675
I1753067
sV\u6389
p676
I124124172
sV\u7791
p677
I561966
sV\u9610
p678
I8607915
sV\u9014
p679
I99447430
sV\u631e
p680
I616172
sV\u7d22
p681
I319267396
sV\u99a5
p682
I309439
sV\u54a7
p683
I5892322
sV\u7726
p684
I105317
sV\u68af
p685
I29895975
sV\u543c
p686
I16501015
sV\u6248
p687
I935334
sV\u5dcd
p688
I4192958
sV\u98cf
p689
I5
sV\u6bd9
p690
I5646607
sV\u7fe1
p691
I4151858
sV\u5766
p692
I51366882
sV\u73e9
p693
I101648
sV\u4eeb
p694
I67958
sV\u6572
p695
I21320296
sV\u797a
p696
I1185818
sV\u95fd
p697
I6261907
sV\u50ff
p698
I1
sV\u818a
p699
I6451130
sV\u5c8c
p700
I1329280
sV\u9592
p701
I2
sV\u8c17
p702
I253757
sV\u7ea0
p703
I38778419
sV\u5925
p704
I1131469
sV\u6731
p705
I15403393
sV\u80b4
p706
I4303441
sV\u9ab8
p707
I2245788
sV\u94bc
p708
I378275
sV\u8349
p709
I122011255
sV\u61ca
p710
I3849431
sV\u75d2
p711
I8469975
sV\u6c57
p712
I32925999
sV\u89da
p713
I4
sV\u605f
p714
I2
sV\u58e4
p715
I9434562
sV\u97e6
p716
I4857926
sV\u66f0
p717
I6572849
sV\u8273
p718
I35499941
sV\u60f4
p719
I1282364
sV\u907f
p720
I104165065
sV\u6885
p721
I26814784
sV\u6289
p722
I3812878
sV\u7691
p723
I922340
sV\u5412
p724
I921201
sV\u7095
p725
I1155921
sV\u6e16
p726
I309537
sV\u5ba3
p727
I150126041
sV\u55a7
p728
I8110910
sV\u7626
p729
I16484623
sV\u63b3
p730
I692633
sV\u9e36
p731
I127220
sV\u77bb
p732
I5788091
sV\u4ec1
p733
I27795081
sV\u8bc3
p734
I1228786
sV\u7750
p735
I7571952
sV\u4e56
p736
I24211246
sV\u72e9
p737
I2369871
sV\u506a
p738
I2
sV\u86f1
p739
I74568
sV\u5df7
p740
I8952504
sV\u51ff
p741
I2114100
sV\u8c82
p742
I1596667
sV\u9492
p743
I168531
sV\u659c
p744
I18692098
sV\u5e21
p745
I1
sV\u9b23
p746
I67744
sV\u5229
p747
I754645659
sV\u6631
p748
I500083
sV\u6035
p749
I139123
sV\u5eb6
p750
I1456515
sV\u58ba
p751
I1
sV\u52be
p752
I669247
sV\u8845
p753
I3546547
sV\u60ca
p754
I197638266
sV\u594f
p755
I39890618
sV\u5353
p756
I16268488
sV\u82de
p757
I847072
sV\u5fe0
p758
I30367518
sV\u53e8
p759
I6805879
sV\u8f6b
p760
I116818
sV\u6dec
p761
I438208
sV\u67f0
p762
I1
sV\u547d
p763
I344032009
sV\u75fc
p764
I314391
sV\u917f
p765
I10271866
sV\u9000
p766
I134531251
sV\u7785
p767
I2888474
sV\u9604
p768
I149261
sV\u5f0a
p769
I15612598
sV\u820c
p770
I20757059
sV\u8e14
p771
I6
sV\u771a
p772
I1
sV\u5e9f
p773
I54967012
sV\u6322
p774
I7
sV\u70ab
p775
I8376676
sV\u6f2a
p776
I2466505
sV\u522c
p777
I3
sV\u952e
p778
I197804283
sV\u5830
p779
I344540
sV\u7cb3
p780
I1018461
sV\u9b32
p781
I1
sV\u873a
p782
I1
sV\u8d3e
p783
I4965513
sV\u94c3
p784
I167947807
sV\u86cf
p785
I65510
sV\u6850
p786
I4445259
sV\u6e54
p787
I1
sV\u5156
p788
I106426
sV\u575a
p789
I147924987
sV\u7bdd
p790
I1459471
sV\u67e5
p791
I658158718
sV\u8c68
p792
I3
sV\u7b72
p793
I4
sV\u8bfd
p794
I4129850
sV\u4eff
p795
I60852951
sV\u5080
p796
I1561975
sV\u7403
p797
I457190808
sV\u9986
p798
I136388670
sV\u9f8a
p799
I1338563
sV\u660f
p800
I40272001
sV\u6c13
p801
I12127741
sV\u4e94
p802
I410986952
sV\u7a9c
p803
I4943405
sV\u9e1f
p804
I44778074
sV\u60a0
p805
I39189890
sV\u6539
p806
I520874243
sV\u84b8
p807
I15152761
sV\u5443
p808
I67591
sV\u73c2
p809
I131679
sV\u79c6
p810
I1044042
sV\u65ce
p811
I821282
sV\u6bd2
p812
I176151101
sV\u89e6
p813
I89385760
sV\u8fea
p814
I42186744
sV\u72ec
p815
I224205412
sV\u7ef4
p816
I279645533
sV\u8e7f
p817
I95277
sV\u9704
p818
I2906808
sV\u5806
p819
I32960112
sV\u7c89
p820
I80504476
sV\u8910
p821
I4542931
sV\u9499
p822
I4813605
sV\u80a1
p823
I424349576
sV\u6222
p824
I10
sV\u63b7
p825
I3280797
sV\u8036
p826
I14246818
sV\u69bb
p827
I2880753
sV\u4ed5
p828
I3092969
sV\u5c5e
p829
I278553078
sV\u51eb
p830
I20
sV\u5df3
p831
I1648981
sV\u6076
p832
I123311922
sV\u667a
p833
I146080666
sV\u6c7e
p834
I635178
sV\u3001
p835
I1
sV\u5180
p836
I2579883
sV\u5784
p837
I10137369
sV\u9886
p838
I387334301
sV\u4f94
p839
I1
sV\u7b9c
p840
I97476
sV\u6da8
p841
I74120708
sV\u54ae
p842
I1
sV\u5ab2
p843
I2948606
sV\u6a3d
p844
I5
sV\u8bbc
p845
I21116213
sV\u9041
p846
I1278219
sV\u5543
p847
I1020250
sV\u72c2
p848
I100913840
sV\u9645
p849
I535825309
sV\u7eca
p850
I2571012
sV\u64ce
p851
I49149614
sV\u7357
p852
I1897220
sV\u795b
p853
I3837007
sV\u9cde
p854
I8184187
sV\u6563
p855
I119613464
sV\u6b67
p856
I12423169
sV\u79f0
p857
I491538578
sV\u8377
p858
I29601719
sV\u65f8
p859
I1
sV\u8f7f
p860
I27291001
sV\u618d
p861
I1
sV\u800c
p862
I817700317
sV\u6d95
p863
I3357386
sV\u8c14
p864
I5
sV\u7316
p865
I3088835
sV\u5a9b
p866
I147948
sV\u751a
p867
I128283987
sV\u8fa9
p868
I25870042
sV\u6d2a
p869
I19238046
sV\u7eb3
p870
I115076135
sV\u5c34
p871
I18936467
sV\u8336
p872
I73762567
sV\u853a
p873
I151309
sV\u6cbf
p874
I42183376
sV\u53c1
p875
I165606
sV\u55c5
p876
I3248616
sV\u7444
p877
I930743
sV\u82cb
p878
I343959
sV\u6a50
p879
I2
sV\u5356
p880
I159595453
sV\u63e1
p881
I100049000
sV\u65e5
p882
I1306851380
sV\u6fe9
p883
I1
sV\u7972
p884
I1
sV\u6376
p885
I622351
sV\u87f9
p886
I8573787
sV\u5484
p887
I2711797
sV\u640f
p888
I13015265
sV\u9017
p889
I11569070
sV\u789c
p890
I227794
sV\u62a0
p891
I1190658
sV\u64a4
p892
I24588501
sV\u57ae
p893
I3832573
sV\u9ab0
p894
I911080
sV\u59b2
p895
I435247
sV\u693d
p896
I66428
sV\u7bc6
p897
I1850291
sV\u4e53
p898
I5617385
sV\u93d6
p899
I696506
sV\u6867
p900
I1997546
sV\u8be6
p901
I310432611
sV\u4ee8
p902
I128530
sV\u8dea
p903
I11927250
sV\u516d
p904
I250775723
sV\u70ec
p905
I1891623
sV\u5b71
p906
I468583
sV\u9e73
p907
I55620
sV\u68fc
p908
I2
sV\u7281
p909
I589092
sV\u9504
p910
I1332278
sV\u5a06
p911
I1825208
sV\u5c0a
p912
I78612293
sV\u608d
p913
I8441171
sV\u5197
p914
I2136578
sV\u9699
p915
I9221147
sV\u5b9b
p916
I7037430
sV\u741a
p917
I1
sV\u989d
p918
I148925094
sV\u82a1
p919
I625246
sV\u73ab
p920
I22661395
sV\u75af
p921
I50830319
sV\u962e
p922
I213493
sV\u5d34
p923
I171207
sV\u8236
p924
I6454053
sV\u5ec9
p925
I40249497
sV\u614c
p926
I25187863
sV\u85cf
p927
I276238078
sV\u6d54
p928
I346869
sV\u5256
p929
I10948888
sV\u78dd
p930
I1
sV\u5e5e
p931
I1
sV\u8360
p932
I489002
sV\u8564
p933
I135299
sV\u6ee9
p934
I20647342
sV\u8f68
p935
I30473127
sV\u53eb
p936
I232442156
sV\u90ed
p937
I2932310
sV\u55ef
p938
I2875596
sV\u5ff3
p939
I1
sV\u6276
p940
I34603402
sV\u86f9
p941
I113993
sV\u647a
p942
I235131
sV\u6e7e
p943
I110641704
sV\u9082
p944
I3634298
sV\u5584
p945
I151941292
sV\u9a86
p946
I3113844
sV\u5f88
p947
I927491630
sV\u6f13
p948
I6902583
sV\u8892
p949
I1508936
sV\u63a0
p950
I10325041
sV\u65a4
p951
I27404787
sV\u8927
p952
I1
sV\u6fa8
p953
I1
sV\u683d
p954
I12924848
sV\u70c2
p955
I30264353
sV\u5947
p956
I294478807
sV\u9e49
p957
I2676285
sV\u7cca
p958
I50472385
sV\u4f53
p959
I1438505219
sV\u68d2
p960
I22258174
sV\u8c55
p961
I20
sV\u7b5b
p962
I7991692
sV\u59dc
p963
I4016456
sV\u4fe8
p964
I2595618
sV\u506d
p965
I2
sV\u956f
p966
I3157306
sV\u9400
p967
I1
sV\u5d06
p968
I600566
sV\u8c10
p969
I43387121
sV\u5c9b
p970
I84238405
sV\u5a9f
p971
I1
sV\u85a1
p972
I1
sV\u4ea7
p973
I1907451517
sV\u72af
p974
I123714844
sV\u78b3
p975
I13980927
sV\u5a34
p976
I2300839
sV\u6cbb
p977
I391402269
sV\u664c
p978
I5705180
sV\u82cf
p979
I132519077
sV\u6c50
p980
I614860
sV\u5556
p981
I6
sV\u9058
p982
I1
sV\u535a
p983
I175170640
sV\u9e5c
p984
I9
sV\u8868
p985
I1288050664
sV\u97ed
p986
I1432872
sV\u716e
p987
I7597942
sV\u58f3
p988
I22320771
sV\u7f72
p989
I37860172
sV\u637a
p990
I1484224
sV\u8ffd
p991
I156418784
sV\u5480
p992
I2775311
sV\u620f
p993
I421901177
sV\u6813
p994
I4184648
sV\u9617
p995
I5
sV\u62a4
p996
I369270120
sV\u8e27
p997
I1
sV\u68a8
p998
I5615227
sV\u9541
p999
I1774401
sV\u5043
p1000
I524116
sV\u6fd2
p1001
I3168651
sV\u6063
p1002
I1189051
sV\u946b
p1003
I1905161
sV\u8bea
p1004
I2
sV\u5b75
p1005
I3244372
sV\u60f8
p1006
I2
sV\u9500
p1007
I458664144
sV\u5c06
p1008
I603664826
sV\u7889
p1009
I761086
sV\u668d
p1010
I1
sV\u9e9d
p1011
I786957
sV\u84a1
p1012
I240016
sV\u82a5
p1013
I1941201
sV\u4fa7
p1014
I53248593
sV\u6c26
p1015
I68975
sV\u75ab
p1016
I48280068
sV\u6a2a
p1017
I53715506
sV\u73af
p1018
I471178201
sV\u902e
p1019
I6662541
sV\u79b3
p1020
I1
sV\u9e32
p1021
I1
sV\u5b34
p1022
I336204
sV\u67b7
p1023
I1423209
sV\u4f3c
p1024
I170740939
sV\u6bbf
p1025
I24699379
sV\u54c1
p1026
I1948120694
sV\u7540
p1027
I1
sV\u7948
p1028
I11681493
sV\u85cb
p1029
I1
sV\u83cf
p1030
I2150832
sV\u70d9
p1031
I3189670
sV\u525a
p1032
I1
sV\u7edd
p1033
I267833929
sV\u585e
p1034
I47524326
sV\u62e5
p1035
I141101847
sV\u8364
p1036
I694606
sV\u55eb
p1037
I823329
sV\u53ef
p1038
L2554675984L
sV\u5580
p1039
I6045890
sV\u5384
p1040
I3039612
sV\u7f07
p1041
I108800
sV\u9c86
p1042
I38947
sV\u5988
p1043
I154220748
sV\u9a8a
p1044
I276349
sV\u5019
p1045
I453525796
sV\u5e1d
p1046
I96071441
sV\u9b1f
p1047
I1450703
sV\u65a0
p1048
I2
sV\u8123
p1049
I1
sV\u63a4
p1050
I1
sV\u69a8
p1051
I3100137
sV\u5143
p1052
I385202454
sV\u76c2
p1053
I673606
sV\u98de
p1054
I290985925
sV\u956b
p1055
I4
sV\u77ec
p1056
I41157
sV\u5c71
p1057
I435104614
sV\u5a75
p1058
I942944
sV\u9600
p1059
I19650166
sV\u840c
p1060
I5174427
sV\u6995
p1061
I1487599
sV\u711a
p1062
I7010265
sV\u589f
p1063
I3458224
sV\u7b1e
p1064
I190865
sV\u8ba9
p1065
I472492405
sV\u542c
p1066
I432060221
sV\u70af
p1067
I2148750
sV\u64b7
p1068
I1083478
sV\u86cb
p1069
I84196827
sV\u4fd1
p1070
I2150704
sV\u6854
p1071
I3162562
sV\u73d9
p1072
I95521
sV\u515a
p1073
I262246428
sV\u56eb
p1074
I305564
sV\u95ed
p1075
I105965910
sV\u83f9
p1076
I1
sV\u4efb
p1077
I839758389
sV\u7c07
p1078
I2911187
sV\u998a
p1079
I304580
sV\u600f
p1080
I596178
sV\u838e
p1081
I12161709
sV\u5319
p1082
I16098246
sV\u7c9c
p1083
I2
sV\u8223
p1084
I1
sV\u8c27
p1085
I1593416
sV\u53ae
p1086
I5011072
sV\u7f31
p1087
I458911
sV\u9eb0
p1088
I1
sV\u6339
p1089
I6
sV\u82b8
p1090
I2263959
sV\u6d3d
p1091
I18118031
sV\u5243
p1092
I2526302
sV\u75c2
p1093
I216243
sV\u9b49
p1094
I375457
sV\u63ce
p1095
I14
sV\u52d8
p1096
I11435234
sV\u6263
p1097
I51776171
sV\u8fe6
p1098
I2587734
sV\u556d
p1099
I1
sV\u906f
p1100
I1
sV\u5f71
p1101
I873316479
sV\u7ef0
p1102
I5152264
sV\u9a73
p1103
I10416033
sV\u8e7b
p1104
I3
sV\u6cfc
p1105
I14164144
sV\u887f
p1106
I285622
sV\u7681
p1107
I7
sV\u9700
p1108
I489882312
sV\u5e06
p1109
I8490356
sV\u9b08
p1110
I141190
sV\u850c
p1111
I2
sV\u701a
p1112
I2365403
sV\u7a1e
p1113
I393486
sV\u80a5
p1114
I68450902
sV\u682a
p1115
I9410719
sV\u552c
p1116
I2042974
sV\u71af
p1117
I2
sV\u5934
p1118
I897854503
sV\u8a3e
p1119
I1
sV\u7740
p1120
I1150354619
sV\u9dc7
p1121
I3
sV\u5ac9
p1122
I7413569
sV\u87cb
p1123
I757776
sV\u654c
p1124
I86164914
sV\u4ed1
p1125
I6310482
sV\u8bd3
p1126
I45799
sV\u6954
p1127
I1188923
sV\u72d9
p1128
I4464027
sV\u505a
p1129
I535967519
sV\u8760
p1130
I2928623
sV\u4e66
p1131
I739149730
sV\u94ed
p1132
I8332956
sV\u51ef
p1133
I28585851
sV\u6676
p1134
I94689990
sV\u82f9
p1135
I22412824
sV\u607a
p1136
I883099
sV\u5b88
p1137
I126157615
sV\u670b
p1138
I259738686
sV\u988a
p1139
I9022021
sV\u610f
p1140
I1283075587
sV\u828e
p1141
I417777
sV\u5219
p1142
I263410774
sV\u5c1d
p1143
I45965719
sV\u8d27
p1144
I260159275
sV\u83b8
p1145
I6
sV\u8dbc
p1146
I1
sV\u5343
p1147
I229751137
sV\u5d47
p1148
I167541
sV\u7ec6
p1149
I455702813
sV\u78ca
p1150
I1360988
sV\u62ce
p1151
I1784447
sV\u8e51
p1152
I1343813
sV\u53d8
p1153
I537500647
sV\u795f
p1154
I2886601
sV\u6363
p1155
I5995500
sV\u916f
p1156
I5197921
sV\u7ff0
p1157
I12030594
sV\u8f7b
p1158
I346962212
sV\u6dfc
p1159
I782994
sV\u897f
p1160
I656250718
sV\u7981
p1161
I123149553
sV\u5106
p1162
I169394
sV\u6b8d
p1163
I4
sV\u8010
p1164
I56032623
sV\u6795
p1165
I8743932
sV\u7f1a
p1166
I6604774
sV\u6b22
p1167
I504504530
sV\u6126
p1168
I2
sV\u78ab
p1169
I1
sV\u672a
p1170
I371269977
sV\u7eaf
p1171
I96106503
sV\u5634
p1172
I83025278
sV\u8936
p1173
I1248271
sV\u60bb
p1174
I1908142
sV\u7840
p1175
I149656844
sV\u5fc5
p1176
I379812692
sV\u6050
p1177
I117398400
sV\u84d3
p1178
I870892
sV\u6654
p1179
I103223
sV\u5956
p1180
I175573647
sV\u65e9
p1181
I248765869
sV\u58eb
p1182
I397034842
sV\u7d6e
p1183
I8266861
sV\u97f5
p1184
I12325052
sV\u8df9
p1185
I216667
sV\u6f7a
p1186
I2359264
sV\u83fd
p1187
I8
sV\u5e84
p1188
I52969175
sV\u7207
p1189
I1
sV\u5488
p1190
I2
sV\u680b
p1191
I3067636
sV\u6413
p1192
I2833860
sV\u8392
p1193
I1
sV\u7c98
p1194
I19434713
sV\u901b
p1195
I14840062
sV\u531d
p1196
I270526
sV\u961f
p1197
I399718577
sV\u8c23
p1198
I10541863
sV\u4f25
p1199
I141534
sV\u90b0
p1200
I113900
sV\u633d
p1201
I13385089
sV\u9549
p1202
I275407
sV\u4e4f
p1203
I41829589
sV\u8151
p1204
I2166878
sV\u63d2
p1205
I83768547
sV\u7a57
p1206
I2057019
sV\u8be2
p1207
I273756472
sV\u4ee4
p1208
I187493465
sV\u6267
p1209
I231262863
sV\u9e6f
p1210
I1
sV\u5171
p1211
I583572213
sV\u76f4
p1212
I588771763
sV\u6cf8
p1213
I1045828
sV\u62fc
p1214
I49182941
sV\u867f
p1215
I3
sV\u7881
p1216
I979267
sV\u9508
p1217
I20241413
sV\u8110
p1218
I2223551
sV\u5b97
p1219
I58691977
sV\u7816
p1220
I16330851
sV\u519b
p1221
I409445551
sV\u6026
p1222
I1641588
sV\u7faf
p1223
I3084975
sV\u75b3
p1224
I118522
sV\u6bb7
p1225
I5748611
sV\u67bf
p1226
I1
sV\u58c1
p1227
I51936007
sV\u7940
p1228
I3143069
sV\u7f44
p1229
I590940
sV\u54c9
p1230
I2769029
sV\u6b4c
p1231
I513696795
sV\u85d3
p1232
I575589
sV\u7cd9
p1233
I5178655
sV\u72dd
p1234
I1
sV\u6ee5
p1235
I10478072
sV\u64e9
p1236
I1
sV\u8568
p1237
I382240
sV\u9aed
p1238
I46993
sV\u55f3
p1239
I91003
sV\u7272
p1240
I17615117
sV\u6876
p1241
I15620395
sV\u9a82
p1242
I36611480
sV\u5f84
p1243
I63249462
sV\u6f0f
p1244
I36448090
sV\u8c8e
p1245
I1
sV\u8292
p1246
I20440880
sV\u521d
p1247
I213313373
sV\u8d23
p1248
I471705919
sV\u4e25
p1249
I203547559
sV\u8327
p1250
I1084357
sV\u65a8
p1251
I2
sV\u52b2
p1252
I51433957
sV\u8db8
p1253
I47613
sV\u4eba
p1254
L5845596879L
sV\u83bc
p1255
I85637
sV\u9e45
p1256
I11011196
sV\u5347
p1257
I230589413
sV\u76ca
p1258
I216535315
sV\u4f4f
p1259
I425466518
sV\u62d2
p1260
I53605963
sV\u98d6
p1261
I1
sV\u5dd8
p1262
I2
sV\u775f
p1263
I1
sV\u6d63
p1264
I666696
sV\u6367
p1265
I15258237
sV\u996b
p1266
I5
sV\u9573
p1267
I630864
sV\u817b
p1268
I11947991
sV\u5306
p1269
I32775435
sV\u9608
p1270
I291437
sV\u4f0e
p1271
I2823188
sV\u8210
p1272
I262534
sV\u9f99
p1273
I204580287
sV\u529b
p1274
I1436407207
sV\u8ba1
p1275
I1039081995
sV\u6326
p1276
I5
sV\u5230
p1277
L2511275279L
sV\u5434
p1278
I13859636
sV\u4e38
p1279
I10879271
sV\u8d3a
p1280
I26683135
sV\u7a40
p1281
I1
sV\u5dc5
p1282
I4732235
sV\u684c
p1283
I75822573
sV\u6454
p1284
I12565668
sV\u9e58
p1285
I5
sV\u5d5a
p1286
I3
sV\u575e
p1287
I8678358
sV\u6be1
p1288
I2065758
sV\u67e9
p1289
I343286
sV\u5aeb
p1290
I1
sV\u7f6e
p1291
I508734304
sV\u7172
p1292
I1126026
sV\u95f5
p1293
I713769
sV\u8ff9
p1294
I82721999
sV\u677e
p1295
I139229224
sV\u6c0f
p1296
I18450909
sV\u8f8e
p1297
I417162
sV\u6613
p1298
I487526486
sV\u709c
p1299
I289852
sV\u6aa0
p1300
I1
sV\u8e23
p1301
I2
sV\u6ca4
p1302
I3
sV\u66a8
p1303
I3100417
sV\u5fae
p1304
I233418111
sV\u7331
p1305
I1
sV\u51b2
p1306
I162847215
sV\u7535
p1307
L2271508684L
sV\u94b4
p1308
I76176
sV\u80bc
p1309
I52711
sV\u9b41
p1310
I5429771
sV\u5047
p1311
I149946058
sV\u75ca
p1312
I2449326
sV\u61d2
p1313
I22339189
sV\u7857
p1314
I1
sV\u725b
p1315
I103118283
sV\u745f
p1316
I9244746
sV\u78ec
p1317
I5
sV\u5371
p1318
I100017408
sV\u72f0
p1319
I2594559
sV\u74f4
p1320
I263591
sV\u8877
p1321
I17277933
sV\u4f79
p1322
I3
sV\u7a81
p1323
I269723953
sV\u5802
p1324
I122123126
sV\u5206
p1325
I1862434591
sV\u540a
p1326
I21527877
sV\u4e0e
p1327
I304066773
sV\u6291
p1328
I43259619
sV\u6495
p1329
I11159641
sV\u559f
p1330
I545815
sV\u4fa3
p1331
I31225174
sV\u86a9
p1332
I1301777
sV\u7bab
p1333
I566834
sV\u642a
p1334
I1391514
sV\u9e2e
p1335
I7
sV\u77b3
p1336
I3215276
sV\u69b7
p1337
I871651
sV\u4f38
p1338
I57937321
sV\u5ac1
p1339
I22125740
sV\u91c7
p1340
I323280662
sV\u8bcb
p1341
I981057
sV\u6350
p1342
I20499497
sV\u7ed9
p1343
I598366007
sV\u70dd
p1344
I1
sV\u6ce5
p1345
I34909579
sV\u8d64
p1346
I21971381
sV\u57f3
p1347
I1
sV\u94f5
p1348
I735034
sV\u80fd
p1349
L2360655839L
sV\u667e
p1350
I1181820
sV\u9882
p1351
I4238201
sV\u948a
p1352
I413502
sV\u9917
p1353
I4
sV\u5e19
p1354
I4
sV\u6da4
p1355
I7266673
sV\u782d
p1356
I146543
sV\u7231
p1357
I630305596
sV\u50b2
p1358
I33691451
sV\u7435
p1359
I3036012
sV\u884d
p1360
I7808827
sV\u5fd8
p1361
I112574759
sV\u88e2
p1362
I86597
sV\u6167
p1363
I35719441
sV\u82e6
p1364
I167768532
sV\u9773
p1365
I72044
sV\u5475
p1366
I199542621
sV\u75f4
p1367
I27029705
sV\u837b
p1368
I4
sV\u5f02
p1369
I164522362
sV\u5506
p1370
I3858599
sV\u8e0c
p1371
I1916870
sV\u6591
p1372
I49449300
sV\u8214
p1373
I1158620
sV\u5e97
p1374
I261653247
sV\u9999
p1375
I248615058
sV\u549b
p1376
I1732418
sV\u529f
p1377
I555707222
sV\u8ba5
p1378
I2911339
sV\u632a
p1379
I9574188
sV\u992e
p1380
I941728
sV\u5430
p1381
I1
sV\u70b3
p1382
I659291
sV\u9732
p1383
I146351150
sV\u6eb7
p1384
I8
sV\u62bf
p1385
I1443237
sV\u813e
p1386
I16512475
sV\u5bc5
p1387
I2483297
sV\u96c7
p1388
I13126216
sV\u51c9
p1389
I41023708
sV\u6254
p1390
I11490103
sV\u5b5a
p1391
I1030123
sV\u6de1
p1392
I102277017
sV\u95f1
p1393
I198161
sV\u50f3
p1394
I206048
sV\u4ef7
p1395
I979734874
sV\u5088
p1396
I206048
sV\u4e8c
p1397
I735066418
sV\u5919
p1398
I577435
sV\u7898
p1399
I676004
sV\u60a8
p1400
I571171062
sV\u7f2d
p1401
I3548806
sV\u59ae
p1402
I13546949
sV\u7531
p1403
I472089824
sV\u94b0
p1404
I311344
sV\u6939
p1405
I281317
sV\u673d
p1406
I6462365
sV\u9b45
p1407
I71572209
sV\u9149
p1408
I1780627
sV\u73ca
p1409
I9295264
sV\u69ce
p1410
I88561
sV\u67d2
p1411
I68341
sV\u745b
p1412
I391062
sV\u725f
p1413
I3209863
sV\u6863
p1414
I124259054
sV\u8fe2
p1415
I2377875
sV\u83ea
p1416
I133210
sV\u5f6d
p1417
I2374380
sV\u9a6f
p1418
I3085816
sV\u5375
p1419
I10614212
sV\u72f4
p1420
I1
sV\u66fc
p1421
I29622585
sV\u827f
p1422
I73307
sV\u5e02
p1423
I1236364975
sV\u5406
p1424
I2257980
sV\u7089
p1425
I29006838
sV\u520a
p1426
I69994159
sV\u6491
p1427
I25481486
sV\u6295
p1428
I488673625
sV\u8314
p1429
I104110
sV\u5f97
p1430
I1604445979
sV\u7a1a
p1431
I9404356
sV\u539f
p1432
I749437205
sV\u6426
p1433
I1
sV\u80a9
p1434
I46294287
sV\u622a
p1435
I55811107
sV\u5530
p1436
I894652
sV\u71b3
p1437
I2
sV\u9632
p1438
I344251884
sV\u8c36
p1439
I66666
sV\u63bf
p1440
I1
sV\u8dcb
p1441
I3456375
sV\u4ecd
p1442
I99906752
sV\u8bcf
p1443
I1977950
sV\u5a5a
p1444
I185627592
sV\u6ce1
p1445
I40006907
sV\u8d60
p1446
I35205916
sV\u60e9
p1447
I16222418
sV\u5deb
p1448
I9325589
sV\u786e
p1449
I409597849
sV\u94f1
p1450
I58799
sV\u51f3
p1451
I5278141
sV\u6c76
p1452
I140660
sV\u88f9
p1453
I9970885
sV\u9e82
p1454
I325834
sV\u7707
p1455
I1
sV\u5188
p1456
I2630181
sV\u6d0b
p1457
I91547591
sV\u6113
p1458
I1
sV\u9f17
p1459
I1
sV\u5819
p1460
I3
sV\u61a8
p1461
I3230837
sV\u7431
p1462
I1
sV\u7235
p1463
I17371481
sV\u6839
p1464
I294610322
sV\u7ec2
p1465
I1
sV\u5747
p1466
I168869545
sV\u8451
p1467
I3
sV\u7f57
p1468
I149629903
sV\u9cd6
p1469
I303856
sV\u59d8
p1470
I234443
sV\u755b
p1471
I1
sV\u57dc
p1472
I1
sV\u90de
p1473
I1
sV\u6963
p1474
I1204990
sV\u84e6
p1475
I5949481
sV\u5471
p1476
I2554168
sV\u75f0
p1477
I1748970
sV\u857b
p1478
I203238
sV\u7f81
p1479
I3748222
sV\u5d02
p1480
I1053439
sV\u7985
p1481
I7708947
sV\u5706
p1482
I64815564
sV\u7389
p1483
I69317332
sV\u5c97
p1484
I56574436
sV\u7f16
p1485
I423939413
sV\u731e
p1486
I72719
sV\u6726
p1487
I7797723
sV\u83a9
p1488
I2
sV\u7eab
p1489
I1867508
sV\u5c2c
p1490
I18936467
sV\u9532
p1491
I628074
sV\u8f36
p1492
I2
sV\u53c9
p1493
I17519793
sV\u7248
p1494
I926712391
sV\u82d3
p1495
I780264
sV\u7bd9
p1496
I1
sV\u595a
p1497
I656588
sV\u535e
p1498
I49175
sV\u6fe1
p1499
I622916
sV\u8e60
p1500
I3
sV\u63e9
p1501
I204648
sV\u7b6e
p1502
I116477
sV\u7572
p1503
I229837
sV\u8bf9
p1504
I1
sV\u697a
p1505
I1
sV\u5e80
p1506
I1
sV\u5288
p1507
I4105886
sV\u680f
p1508
I96349305
sV\u7a98
p1509
I3009713
sV\u749c
p1510
I1317611
sV\u901f
p1511
I468215766
sV\u8427
p1512
I10277945
sV\u62a8
p1513
I1547967
sV\u6b39
p1514
I1
sV\u4e4b
p1515
I1383614528
sV\u8d4d
p1516
I5
sV\u8155
p1517
I10505750
sV\u54dc
p1518
I2
sV\u6467
p1519
I7618932
sV\u9e6b
p1520
I528052
sV\u81ea
p1521
L2252043364L
sV\u5175
p1522
I160072510
sV\u867b
p1523
I139238
sV\u807f
p1524
I208526
sV\u6691
p1525
I17331333
sV\u8114
p1526
I74119
sV\u579b
p1527
I341525
sV\u781a
p1528
I499001
sV\u949d
p1529
I3627469
sV\u6c22
p1530
I5384048
sV\u82a9
p1531
I322802
sV\u602a
p1532
I151301611
sV\u5730
p1533
L2186198071L
sV\u73b3
p1534
I206366
sV\u58c5
p1535
I76898
sV\u95c7
p1536
I2
sV\u52c9
p1537
I15907910
sV\u6750
p1538
I308943014
sV\u7ad9
p1539
I945124053
sV\u955c
p1540
I94223843
sV\u6ee1
p1541
I323024987
sV\u62e9
p1542
I248109044
sV\u8368
p1543
I2470970
sV\u5feb
p1544
I707501204
sV\u53f3
p1545
I181407879
sV\u627e
p1546
I379641777
sV\u5f80
p1547
I277100456
sV\u7b03
p1548
I1623993
sV\u9c82
p1549
I1
sV\u5984
p1550
I10246579
sV\u9686
p1551
I45044906
sV\u541d
p1552
I3843552
sV\u63a8
p1553
I602612611
sV\u5aae
p1554
I1
sV\u91b4
p1555
I76036
sV\u8bb8
p1556
I409500612
sV\u643d
p1557
I1
sV\u76c6
p1558
I15760847
sV\u70ca
p1559
I377747
sV\u8651
p1560
I95591333
sV\u64d2
p1561
I3746252
sV\u775b
p1562
I96068452
sV\u98da
p1563
I2000120
sV\u55dc
p1564
I4967956
sV\u6b63
p1565
I941131362
sV\u80ea
p1566
I198766
sV\u996f
p1567
I863910
sV\u5671
p1568
I964462
sV\u8d77
p1569
I1072302995
sV\u817f
p1570
I48141411
sV\u6302
p1571
I102947617
sV\u908b
p1572
I963457
sV\u968f
p1573
I309836871
sV\u5f95
p1574
I684335
sV\u6297
p1575
I106333174
sV\u6e9f
p1576
I122326
sV\u9020
p1577
I483728477
sV\u622c
p1578
I314052
sV\u6e34
p1579
I23748055
sV\u7a3c
p1580
I1787406
sV\u73cd
p1581
I62325459
sV\u524c
p1582
I229148
sV\u79d1
p1583
I756380449
sV\u7fd5
p1584
I191082
sV\u5e54
p1585
I222374
sV\u82d7
p1586
I35382832
sV\u6d5e
p1587
I1
sV\u51e1
p1588
I57544014
sV\u94e3
p1589
I1930980
sV\u5de9
p1590
I8728354
sV\u60eb
p1591
I8042254
sV\u7f6a
p1592
I97357805
sV\u8870
p1593
I19195584
sV\u6cf3
p1594
I21884449
sV\u8e74
p1595
I616680
sV\u72f7
p1596
I1
sV\u5176
p1597
I990102211
sV\u9a7c
p1598
I4370827
sV\u7eff
p1599
I113866506
sV\u6684
p1600
I1403158
sV\u6c88
p1601
I32316826
sV\u9e3f
p1602
I9925682
sV\u80c0
p1603
I12266916
sV\u86c4
p1604
I54805
sV\u6a47
p1605
I771670
sV\u4fca
p1606
I20885881
sV\u7c53
p1607
I2
sV\u5bd2
p1608
I54592883
sV\u9ed4
p1609
I547483
sV\u8559
p1610
I207171
sV\u64d8
p1611
I288513
sV\u6adc
p1612
I5
sV\u4e5f
p1613
I1162351595
sV\u9161
p1614
I225692
sV\u9765
p1615
I923060
sV\u5a67
p1616
I82079
sV\u7ce8
p1617
I321966
sV\u636d
p1618
I3
sV\u8bf2
p1619
I1517542
sV\u918b
p1620
I6755563
sV\u6e0a
p1621
I8755994
sV\u5e95
p1622
I236348953
sV\u699b
p1623
I240311
sV\u75a3
p1624
I5905116
sV\u7ba7
p1625
I10
sV\u5826
p1626
I1
sV\u82ad
p1627
I5297714
sV\u88b1
p1628
I3844591
sV\u6930
p1629
I2672844
sV\u7538
p1630
I7687367
sV\u59bb
p1631
I76706436
sV\u7b3c
p1632
I17761990
sV\u6cc9
p1633
I36816063
sV\u8e4a
p1634
I2111975
sV\u72cd
p1635
I87830
sV\u7ed5
p1636
I40485126
sV\u665a
p1637
I228516905
sV\u8fdf
p1638
I45314045
sV\u6c5e
p1639
I254850
sV\u7262
p1640
I28756949
sV\u67ef
p1641
I11262250
sV\u6df3
p1642
I1871121
sV\u8f74
p1643
I20373180
sV\u5076
p1644
I70325932
sV\u79fb
p1645
I188153773
sV\u8001
p1646
I700340808
sV\u6784
p1647
I354961520
sV\u6d88
p1648
I424152759
sV\u510b
p1649
I3
sV\u7f94
p1650
I2029435
sV\u8096
p1651
I9806567
sV\u51a0
p1652
I67706311
sV\u98a6
p1653
I159570
sV\u64ae
p1654
I1716956
sV\u8d33
p1655
I2
sV\u5439
p1656
I38060965
sV\u7cbe
p1657
I756760600
sV\u81c0
p1658
I5874280
sV\u6b47
p1659
I9762048
sV\u4eca
p1660
I519346584
sV\u54ce
p1661
I9422008
sV\u4f5f
p1662
I54486
sV\u626d
p1663
I26356480
sV\u7a7d
p1664
I2
sV\u5bfc
p1665
I557095741
sV\u4f89
p1666
I42597
sV\u518d
p1667
I463358765
sV\u9e93
p1668
I1316428
sV\u6c9f
p1669
I43776987
sV\u4f1e
p1670
I6217376
sV\u78a7
p1671
I16536724
sV\u9e28
p1672
I597174
sV\u8db5
p1673
I310909
sV\u6c34
p1674
I893315143
sV\u7638
p1675
I871431
sV\u5cbf
p1676
I99466
sV\u65c5
p1677
I244223275
sV\u4e48
p1678
I1795136517
sV\u8d4a
p1679
I515249
sV\u504c
p1680
I1807925
sV\u7bd1
p1681
I537030
sV\u6f5e
p1682
I52684
sV\u55e5
p1683
I187161
sV\u98e7
p1684
I8
sV\u7b66
p1685
I1
sV\u70f7
p1686
I2813403
sV\u987c
p1687
I212744
sV\u8301
p1688
I1020573
sV\u6280
p1689
I1074277173
sV\u540f
p1690
I2463708
sV\u8f9e
p1691
I34524159
sV\u7321
p1692
I122287
sV\u52a0
p1693
I1235740407
sV\u7525
p1694
I1251528
sV\u54a4
p1695
I1229942
sV\u7f29
p1696
I99004241
sV\u822b
p1697
I346702
sV\u6643
p1698
I23854452
sV\u84c4
p1699
I21779809
sV\u57ce
p1700
I443665024
sV\u59d2
p1701
I163987
sV\u9cd4
p1702
I37100
sV\u8759
p1703
I2928623
sV\u72e0
p1704
I44341235
sV\u74e4
p1705
I58605
sV\u7ee8
p1706
I2
sV\u7779
p1707
I9536406
sV\u95fa
p1708
I3037056
sV\u8783
p1709
I2783328
sV\u6002
p1710
I1077662
sV\u4e89
p1711
I297000059
sV\u508d
p1712
I5965688
sV\u7812
p1713
I350040
sV\u8718
p1714
I7560273
sV\u6d9f
p1715
I3237444
sV\u4e1e
p1716
I2498736
sV\u9524
p1717
I4775998
sV\u79a7
p1718
I3440967
sV\u612c
p1719
I1
sV\u51b7
p1720
I156265630
sV\u7738
p1721
I10764625
sV\u793c
p1722
I150225111
sV\u8042
p1723
I716443
sV\u64c5
p1724
I22201719
sV\u5b50
p1725
L2173374501L
sV\u7cd5
p1726
I21629566
sV\u8bdb
p1727
I884087
sV\u8ddf
p1728
I183702860
sV\u54e5
p1729
I154252325
sV\u65ef
p1730
I470679
sV\u8d74
p1731
I16186096
sV\u997c
p1732
I14354941
sV\u5e7e
p1733
I2
sV\u6380
p1734
I13413419
sV\u8e09
p1735
I2496941
sV\u6f88
p1736
I5934826
sV\u900d
p1737
I13146564
sV\u550f
p1738
I1221837
sV\u5f13
p1739
I9276468
sV\u6619
p1740
I1476441
sV\u8e9e
p1741
I2
sV\u90a2
p1742
I2234084
sV\u7425
p1743
I2720956
sV\u5fa8
p1744
I2132631
sV\u832b
p1745
I28288917
sV\u66ae
p1746
I4339055
sV\u72b6
p1747
I340956307
sV\u5639
p1748
I825633
sV\u9b3b
p1749
I16
sV\u7ebe
p1750
I2
sV\u6743
p1751
I822137295
sV\u8fc8
p1752
I24930098
sV\u91cc
p1753
I1212713416
sV\u754f
p1754
I12789485
sV\u67d8
p1755
I79411
sV\u73e0
p1756
I80276317
sV\u75e4
p1757
I2270957
sV\u9e69
p1758
I85909
sV\u606d
p1759
I25097544
sV\u86ee
p1760
I14252615
sV\u6a71
p1761
I6562545
sV\u94fa
p1762
I40099405
sV\u9efe
p1763
I1
sV\u8083
p1764
I33092305
sV\u8e87
p1765
I1984348
sV\u9893
p1766
I5802963
sV\u5b95
p1767
I1235052
sV\u6697
p1768
I135649684
sV\u8018
p1769
I1701260
sV\u6c9b
p1770
I2646551
sV\u7ea7
p1771
I916777358
sV\u662c
p1772
I2
sV\u6c30
p1773
I916492
sV\u56b7
p1774
I8313113
sV\u5abf
p1775
I1
sV\u65c1
p1776
I82008636
sV\u8d46
p1777
I1
sV\u77cd
p1778
I191381
sV\u5c50
p1779
I203182
sV\u6556
p1780
I2448480
sV\u4fdd
p1781
I952649659
sV\u695e
p1782
I2372620
sV\u55e1
p1783
I3778134
sV\u7762
p1784
I2
sV\u53e5
p1785
I153923261
sV\u9ee7
p1786
I1
sV\u866c
p1787
I339295
sV\u62ef
p1788
I9322398
sV\u5576
p1789
I925295
sV\u7cfb
p1790
I1470336891
sV\u7aff
p1791
I3079531
sV\u8305
p1792
I8379767
sV\u6284
p1793
I14302939
sV\u4e07
p1794
I373534681
sV\u970d
p1795
I12291520
sV\u7325
p1796
I2643484
sV\u58a8
p1797
I37433747
sV\u73ba
p1798
I1003618
sV\u79be
p1799
I1037061
sV\u6043
p1800
I1309473
sV\u82c4
p1801
I357656
sV\u88c8
p1802
I2
sV\u96cc
p1803
I3378923
sV\u60d8
p1804
I3414984
sV\u74e0
p1805
I3
sV\u9969
p1806
I1
sV\u78e8
p1807
I47633645
sV\u676d
p1808
I56895214
sV\u6602
p1809
I19516415
sV\u8f87
p1810
I2
sV\u6a0a
p1811
I272596
sV\u938f
p1812
I219832
sV\u5c91
p1813
I1153884
sV\u6797
p1814
I224871225
sV\u6d9b
p1815
I13272780
sV\u7fa7
p1816
I285667
sV\u672c
p1817
L2277295748L
sV\u90b9
p1818
I359142
sV\u9ebd
p1819
I1
sV\u5bbf
p1820
I45012761
sV\u62c5
p1821
I179860198
sV\u8c46
p1822
I56461963
sV\u68c9
p1823
I27092093
sV\u574c
p1824
I1
sV\u5b54
p1825
I42374643
sV\u8ddb
p1826
I469477
sV\u8bdf
p1827
I515658
sV\u8d70
p1828
I514926374
sV\u9178
p1829
I72839491
sV\u587e
p1830
I506371
sV\u8401
p1831
I5
sV\u8205
p1832
I7301208
sV\u6988
p1833
I2226425
sV\u960d
p1834
I3
sV\u778c
p1835
I1575640
sV\u530f
p1836
I1
sV\u7b94
p1837
I2099458
sV\u6019
p1838
I6
sV\u6e1d
p1839
I1587811
sV\u4f9c
p1840
I1
sV\u59a8
p1841
I18679410
sV\u852b
p1842
I82450
sV\u832f
p1843
I677779
sV\u60ae
p1844
I1
sV\u6eb2
p1845
I4
sV\u5e3d
p1846
I17989446
sV\u78be
p1847
I1025400
sV\u6f47
p1848
I13397872
sV\u89c8
p1849
I256018968
sV\u754b
p1850
I1
sV\u9265
p1851
I9
sV\u94f6
p1852
I229065466
sV\u51f8
p1853
I9693369
sV\u6f06
p1854
I19639725
sV\u968b
p1855
I1733992
sV\u730e
p1856
I27543305
sV\u8c1c
p1857
I11710317
sV\u5522
p1858
I334817
sV\u5f26
p1859
I33741578
sV\u592a
p1860
I418920110
sV\u642c
p1861
I27922858
sV\u8fb1
p1862
I24048112
sV\u54b7
p1863
I2
sV\u7238
p1864
I80084472
sV\u67c1
p1865
I1
sV\u75cd
p1866
I267422
sV\u79d5
p1867
I3
sV\u5854
p1868
I35206808
sV\u6756
p1869
I3598652
sV\u88df
p1870
I549523
sV\u846c
p1871
I11849441
sV\u60ef
p1872
I66001839
sV\u8e70
p1873
I91908
sV\u74f7
p1874
I25312426
sV\u7efb
p1875
I458911
sV\u9c7c
p1876
I99072401
sV\u6084
p1877
I45559477
sV\u500f
p1878
I4028868
sV\u5a13
p1879
I1975076
sV\u7894
p1880
I1
sV\u63ae
p1881
I105280
sV\u6db2
p1882
I106214839
sV\u77b6
p1883
I1
sV\u5339
p1884
I23824139
sV\u5d3d
p1885
I1170399
sV\u86c0
p1886
I1034350
sV\u6243
p1887
I3
sV\u80c4
p1888
I493429
sV\u6c47
p1889
I128285078
sV\u62d8
p1890
I12302104
sV\u8d5d
p1891
I429474
sV\u9761
p1892
I5017666
sV\u9165
p1893
I3529061
sV\u70e4
p1894
I14845759
sV\u4ef0
p1895
I31582209
sV\u97f6
p1896
I588955
sV\u6402
p1897
I6737991
sV\u978b
p1898
I48065643
sV\u6597
p1899
I123677810
sV\u5e26
p1900
I477441322
sV\u582a
p1901
I24864159
sV\u6934
p1902
I175645
sV\u55b7
p1903
I43331572
sV\u9cbd
p1904
I1
sV\u60c5
p1905
I1541193918
sV\u7ed1
p1906
I21320164
sV\u78d5
p1907
I2125585
sV\u5954
p1908
I55650378
sV\u6656
p1909
I3066938
sV\u8fdb
p1910
I1526812852
sV\u56e1
p1911
I1564994
sV\u5ae9
p1912
I14076917
sV\u8f70
p1913
I24339386
sV\u6bf3
p1914
I1
sV\u5676
p1915
I176540
sV\u7ffb
p1916
I101827669
sV\u8005
p1917
I1286695050
sV\u809a
p1918
I28839907
sV\u57a0
p1919
I1005592
sV\u94a2
p1920
I119393933
sV\u51a4
p1921
I11310734
sV\u9ea6
p1922
I38977992
sV\u812f
p1923
I2641288
sV\u4e31
p1924
I1
sV\u6cb2
p1925
I1
sV\u9537
p1926
I143327
sV\u5239
p1927
I19422468
sV\u9f3b
p1928
I35107504
sV\u5c3d
p1929
I243720553
sV\u7abe
p1930
I4
sV\u87c0
p1931
I757776
sV\u6d47
p1932
I4453073
sV\u4ec6
p1933
I9245603
sV\u8bc8
p1934
I15196357
sV\u5cd2
p1935
I600566
sV\u4f5b
p1936
I86940155
sV\u6ddc
p1937
I1
sV\u9661
p1938
I4381987
sV\u9065
p1939
I45358007
sV\u9a69
p1940
I1
sV\u96f6
p1941
I87012470
sV\u7279
p1942
I792110261
sV\u53f8
p1943
I1584927738
sV\u7c7d
p1944
I2552220
sV\u6106
p1945
I5
sV\u9493
p1946
I10914510
sV\u6a97
p1947
I870886
sV\u8c18
p1948
I2135083
sV\u609b
p1949
I10
sV\u4f1a
p1950
L2991771440L
sV\u821c
p1951
I1226049
sV\u572a
p1952
I1
sV\u8bad
p1953
I232597258
sV\u87b5
p1954
I42894
sV\u7c38
p1955
I1833843
sV\u50bb
p1956
I30532354
sV\u69c1
p1957
I244504
sV\u8146
p1958
I1595713
sV\u5654
p1959
I418592
sV\u80db
p1960
I480981
sV\u86df
p1961
I907831
sV\u655e
p1962
I8406642
sV\u7166
p1963
I816236
sV\u5976
p1964
I73081327
sV\u557e
p1965
I735692
sV\u5e0f
p1966
I3
sV\u5413
p1967
I38999482
sV\u6d19
p1968
I354581
sV\u631d
p1969
I670118
sV\u7f25
p1970
I1504939
sV\u7529
p1971
I9907705
sV\u54a8
p1972
I131050675
sV\u8e2f
p1973
I214115
sV\u6dae
p1974
I916599
sV\u903b
p1975
I19761056
sV\u533d
p1976
I1
sV\u963f
p1977
I110096980
sV\u75be
p1978
I66411430
sV\u88c0
p1979
I1
sV\u6247
p1980
I17316147
sV\u90d0
p1981
I3
sV\u62dc
p1982
I56260666
sV\u5c63
p1983
I58252
sV\u5267
p1984
I189973072
sV\u83f2
p1985
I27533034
sV\u6775
p1986
I43922
sV\u95fe
p1987
I156098
sV\u6006
p1988
I883801
sV\u998b
p1989
I1115411
sV\u660a
p1990
I1476563
sV\u4e1a
p1991
L2770068195L
sV\u831c
p1992
I660119
sV\u5026
p1993
I11474990
sV\u9528
p1994
I106870
sV\u4faf
p1995
I11059721
sV\u80b1
p1996
I179124
sV\u6734
p1997
I14294150
sV\u51bb
p1998
I18373509
sV\u68c1
p1999
I1
sV\u8046
p2000
I6374410
sV\u8bd7
p2001
I72408789
sV\u54e9
p2002
I580919
sV\u8b6c
p2003
I4341600
sV\u6fef
p2004
I82712
sV\u8170
p2005
I38425540
sV\u8774
p2006
I14411758
sV\u7bf7
p2007
I7031088
sV\u5e7a
p2008
I153066
sV\u77ff
p2009
I66855639
sV\u8e05
p2010
I1
sV\u6f84
p2011
I6093398
sV\u5f0f
p2012
I980418931
sV\u9011
p2013
I1
sV\u8896
p2014
I23560484
sV\u6c19
p2015
I545126
sV\u90a6
p2016
I24333179
sV\u892b
p2017
I46064
sV\u6cae
p2018
I4855291
sV\u5c39
p2019
I764089
sV\u7eba
p2020
I49692434
sV\u523d
p2021
I710744
sV\u6d43
p2022
I497202
sV\u8fc4
p2023
I4944747
sV\u52d2
p2024
I31516372
sV\u6dd8
p2025
I23793192
sV\u63dc
p2026
I2
sV\u5367
p2027
I24304009
sV\u75e8
p2028
I141589
sV\u53fc
p2029
I778901
sV\u94fe
p2030
I153030412
sV\u8087
p2031
I4465886
sV\u9a8b
p2032
I2066395
sV\u598d
p2033
I196441
sV\u7f0e
p2034
I1979856
sV\u6897
p2035
I6302701
sV\u629b
p2036
I24479732
sV\u7ea3
p2037
I663182
sV\u83b1
p2038
I38131071
sV\u6434
p2039
I3
sV\u52bb
p2040
I1
sV\u54bf
p2041
I1223346
sV\u6bc1
p2042
I38852021
sV\u6dc5
p2043
I1218609
sV\u8346
p2044
I5007947
sV\u854a
p2045
I1311064
sV\u79cd
p2046
I1053099090
sV\u584c
p2047
I10566739
sV\u73d1
p2048
I5469980
sV\u5250
p2049
I3
sV\u9152
p2050
I227197684
sV\u75d5
p2051
I30434538
sV\u82db
p2052
I3863790
sV\u6d5a
p2053
I339987
sV\u675e
p2054
I2112797
sV\u5be1
p2055
I7411161
sV\u5de5
p2056
I2109607668
sV\u756a
p2057
I43953733
sV\u886c
p2058
I14749962
sV\u6cef
p2059
I675067
sV\u8270
p2060
I28087430
sV\u66f3
p2061
I3346758
sV\u78f7
p2062
I5943101
sV\u72fb
p2063
I111701
sV\u74ff
p2064
I90444
sV\u6a80
p2065
I2129051
sV\u4e03
p2066
I152660820
sV\u6c84
p2067
I2
sV\u8709
p2068
I258152
sV\u990d
p2069
I51802
sV\u788c
p2070
I11575154
sV\u5c0f
p2071
I1695738870
sV\u4e98
p2072
I1365177
sV\u5aa0
p2073
I1
sV\u7729
p2074
I4829038
sV\u8c2f
p2075
I95894
sV\u5f39
p2076
I115852934
sV\u6e43
p2077
I2736021
sV\u6047
p2078
I1
sV\u60dc
p2079
I68262720
sV\u7ae0
p2080
I653509776
sV\u9769
p2081
I183713864
sV\u6371
p2082
I317248
sV\u7f79
p2083
I1285234
sV\u717d
p2084
I4669985
sV\u8f83
p2085
I322002542
sV\u5495
p2086
I10926979
sV\u659f
p2087
I2075858
sV\u542a
p2088
I1
sV\u88ad
p2089
I47926713
sV\u82b1
p2090
I449811996
sV\u9eb9
p2091
I1
sV\u7f38
p2092
I8513952
sV\u53bb
p2093
I1032121942
sV\u6cc5
p2094
I83049
sV\u9052
p2095
I190861
sV\u4ed9
p2096
I54773746
sV\u5ae1
p2097
I723178
sV\u5ce5
p2098
I726070
sV\u7266
p2099
I683254
sV\u6beb
p2100
I95631750
sV\u67f3
p2101
I17697095
sV\u8574
p2102
I10459473
sV\u5a76
p2103
I2611821
sV\u5c7a
p2104
I1
sV\u75ff
p2105
I1940316
sV\u8c05
p2106
I22065141
sV\u7594
p2107
I34914
sV\u601d
p2108
I431700875
sV\u5ba0
p2109
I46149784
sV\u7629
p2110
I3331248
sV\u8d2f
p2111
I61313113
sV\u60b2
p2112
I61652772
sV\u8bc0
p2113
I12312670
sV\u8dc4
p2114
I2496941
sV\u7b4b
p2115
I20196606
sV\u8e59
p2116
I1068596
sV\u9669
p2117
I256877839
sV\u6271
p2118
I1
sV\u5ff8
p2119
I325066
sV\u96fe
p2120
I26290230
sV\u6f02
p2121
I78916243
sV\u9c8b
p2122
I1
sV\u9a8f
p2123
I3369461
sV\u5591
p2124
I185277
sV\u9093
p2125
I15335358
sV\u5395
p2126
I16153434
sV\u629f
p2127
I7
sV\u78a3
p2128
I333566
sV\u5f22
p2129
I2
sV\u532a
p2130
I11469273
sV\u6430
p2131
I1
sV\u6234
p2132
I32666197
sV\u5eb7
p2133
I199554612
sV\u7838
p2134
I7825263
sV\u54bb
p2135
I1137796
sV\u763c
p2136
I1
sV\u52bf
p2137
I303163117
sV\u6bc5
p2138
I11924222
sV\u5e4c
p2139
I1360454
sV\u5450
p2140
I6386811
sV\u9752
p2141
I281170772
sV\u5254
p2142
I8100952
sV\u82df
p2143
I3919469
sV\u5de1
p2144
I29216044
sV\u7f62
p2145
I30611320
sV\u5be5
p2146
I5497564
sV\u6ceb
p2147
I314802
sV\u8e6c
p2148
I857645
sV\u60f3
p2149
I1151284890
sV\u8274
p2150
I1
sV\u7ef7
p2151
I4631225
sV\u5b7a
p2152
I946362
sV\u6a84
p2153
I190701
sV\u8109
p2154
I36339041
sV\u9f0d
p2155
I2
sV\u7490
p2156
I381673
sV\u671d
p2157
I114278748
sV\u7b25
p2158
I1
sV\u50a8
p2159
I78638275
sV\u8c2b
p2160
I1
sV\u8033
p2161
I105095022
sV\u9e37
p2162
I3
sV\u5939
p2163
I58128849
sV\u6843
p2164
I33873485
sV\u94d0
p2165
I1355176
sV\u57d2
p2166
I4
sV\u68d8
p2167
I4193788
sV\u66dc
p2168
I297950
sV\u7ce0
p2169
I532117
sV\u9169
p2170
I382854
sV\u70e8
p2171
I143628
sV\u6f6d
p2172
I5133665
sV\u4eec
p2173
I1960103441
sV\u58f8
p2174
I6
sV\u777d
p2175
I2014698
sV\u8983
p2176
I1
sV\u620a
p2177
I2450786
sV\u659b
p2178
I213971
sV\u871c
p2179
I30113951
sV\u5e22
p2180
I1
sV\u77a7
p2181
I23495954
sV\u5426
p2182
I247195651
sV\u8ead
p2183
I1
sV\u5fb7
p2184
I263854481
sV\u55bb
p2185
I10671944
sV\u96bd
p2186
I917692
sV\u773c
p2187
I539777946
sV\u53bf
p2188
I74490672
sV\u8e42
p2189
I1891355
sV\u8446
p2190
I956616
sV\u7ecd
p2191
I246237245
sV\u5550
p2192
I369248
sV\u83df
p2193
I146221
sV\u5ce1
p2194
I22123930
sV\u97e7
p2195
I6118071
sV\u6deb
p2196
I24108319
sV\u8f6c
p2197
I578647741
sV\u6bef
p2198
I8129576
sV\u977c
p2199
I232323
sV\u507e
p2200
I2
sV\u8c01
p2201
I182327662
sV\u6b84
p2202
I190200
sV\u7f8c
p2203
I581788
sV\u7590
p2204
I4
sV\u5ba4
p2205
I252076390
sV\u94a6
p2206
I3296243
sV\u8d2b
p2207
I43162406
sV\u4e2d
p2208
L3738049977L
sV\u9f37
p2209
I3
sV\u953b
p2210
I20144385
sV\u8bc4
p2211
I554562745
sV\u7b4f
p2212
I802050
sV\u4f57
p2213
I755009
sV\u8859
p2214
I2454936
sV\u67dc
p2215
I33302079
sV\u9069
p2216
I2
sV\u86f2
p2217
I59096
sV\u767d
p2218
I435103412
sV\u9e8b
p2219
I358129
sV\u610a
p2220
I1
sV\u5195
p2221
I3412763
sV\u609f
p2222
I27261802
sV\u9e20
p2223
I437595
sV\u74a7
p2224
I616393
sV\u4eab
p2225
I250396144
sV\u5cb7
p2226
I608952
sV\u743c
p2227
I3059188
sV\u8d42
p2228
I4064098
sV\u63c9
p2229
I7920632
sV\u814a
p2230
I12578104
sV\u9552
p2231
I3
sV\u71d5
p2232
I18609137
sV\u86db
p2233
I9703469
sV\u695a
p2234
I94763954
sV\u635e
p2235
I6080677
sV\u5fe1
p2236
I2757066
sV\u59e5
p2237
I5253245
sV\u94e7
p2238
I261886
sV\u7766
p2239
I1952363
sV\u53e9
p2240
I2373715
sV\u62f3
p2241
I36671637
sV\u9a78
p2242
I875400
sV\u8309
p2243
I2215111
sV\u5213
p2244
I1
sV\u7094
p2245
I478475
sV\u8f96
p2246
I23279702
sV\u839e
p2247
I21778227
sV\u7329
p2248
I5902003
sV\u52a8
p2249
I1947100121
sV\u8233
p2250
I1
sV\u963b
p2251
I62389407
sV\u79ba
p2252
I3328049
sV\u6447
p2253
I125572099
sV\u9ccc
p2254
I753382
sV\u55d2
p2255
I1456153
sV\u7ee0
p2256
I5
sV\u9965
p2257
I8043106
sV\u8bee
p2258
I244855
sV\u6175
p2259
I1627733
sV\u7b79
p2260
I41211980
sV\u54fc
p2261
I18551462
sV\u8587
p2262
I9011948
sV\u6606
p2263
I23337528
sV\u9f8b
p2264
I419529
sV\u998f
p2265
I1378132
sV\u7a0e
p2266
I174233914
sV\u4e16
p2267
I675866106
sV\u9f20
p2268
I76668874
sV\u502a
p2269
I2130383
sV\u86b1
p2270
I604896
sV\u5db7
p2271
I55022
sV\u7b38
p2272
I36703
sV\u94bd
p2273
I146636
sV\u6ec1
p2274
I1138198
sV\u62c9
p2275
I267214892
sV\u804a
p2276
I98155953
sV\u7ccd
p2277
I127134
sV\u5d4c
p2278
I11485202
sV\u76d1
p2279
I261698229
sV\u5750
p2280
I138583665
sV\u5154
p2281
I21951196
sV\u8dd7
p2282
I3
sV\u6e56
p2283
I148360956
sV\u625e
p2284
I1
sV\u8770
p2285
I74518
sV\u8174
p2286
I698246
sV\u5e76
p2287
I454735459
sV\u77fb
p2288
I2
sV\u6984
p2289
I4519962
sV\u6388
p2290
I243398833
sV\u5f0b
p2291
I780132
sV\u590f
p2292
I89843844
sV\u9611
p2293
I1933988
sV\u7194
p2294
I4969614
sV\u9ca2
p2295
I224261
sV\u7825
p2296
I595176
sV\u53a8
p2297
I31000091
sV\u90aa
p2298
I20753763
sV\u7eb6
p2299
I4216871
sV\u6b43
p2300
I75967
sV\u89c4
p2301
I681154680
sV\u54d2
p2302
I744048
sV\u9e61
p2303
I1
sV\u7fe0
p2304
I12035504
sV\u5b63
p2305
I122051070
sV\u79e4
p2306
I5098254
sV\u5567
p2307
I3726095
sV\u7a79
p2308
I2832482
sV\u5bf8
p2309
I60360203
sV\u5181
p2310
I1
sV\u9a87
p2311
I8399920
sV\u808b
p2312
I4419622
sV\u7f0a
p2313
I4
sV\u789b
p2314
I35192
sV\u8c28
p2315
I26702957
sV\u50ab
p2316
I1
sV\u4f2a
p2317
I30108719
sV\u722c
p2318
I31878421
sV\u7830
p2319
I2263129
sV\u5cb3
p2320
I10430715
sV\u85b9
p2321
I137486
sV\u8bbd
p2322
I9964525
sV\u4ebf
p2323
I67964987
sV\u5c48
p2324
I22116896
sV\u63cd
p2325
I385075
sV\u4e54
p2326
I16397412
sV\u775a
p2327
I105311
sV\u5bdd
p2328
I9908395
sV\u6362
p2329
I238764262
sV\u70eb
p2330
I8191792
sV\u76ef
p2331
I21518684
sV\u556e
p2332
I318230
sV\u62f7
p2333
I7738730
sV\u8478
p2334
I1
sV\u7080
p2335
I182610
sV\u5403
p2336
I240086754
sV\u7684
p2337
L2582236824L
sV\u5a07
p2338
I29716364
sV\u7519
p2339
I265724
sV\u979a
p2340
I1
sV\u6d29
p2341
I2
sV\u962f
p2342
I1
sV\u75ae
p2343
I9088909
sV\u5931
p2344
I383113478
sV\u8237
p2345
I795567
sV\u53c2
p2346
I398110731
sV\u96c4
p2347
I92643916
sV\u59c6
p2348
I34791208
sV\u604b
p2349
I109495641
sV\u82cc
p2350
I2
sV\u664f
p2351
I393118
sV\u5257
p2352
I3
sV\u60e0
p2353
I82581920
sV\u8765
p2354
I89766
sV\u6ce8
p2355
I1170777335
sV\u736d
p2356
I375540
sV\u95ee
p2357
I1009821077
sV\u58f0
p2358
I736225232
sV\u5685
p2359
I823329
sV\u7806
p2360
I1
sV\u4e95
p2361
I23284851
sV\u5016
p2362
I3
sV\u7f9f
p2363
I900119
sV\u8d28
p2364
I590637609
sV\u4e2a
p2365
L3642839872L
sV\u732c
p2366
I1564123
sV\u57af
p2367
I1
sV\u7f34
p2368
I24357843
sV\u84b9
p2369
I4
sV\u6538
p2370
I636767
sV\u4fbf
p2371
I340712070
sV\u70c1
p2372
I9373524
sV\u5140
p2373
I3330689
sV\u76c5
p2374
I83647
sV\u9e4a
p2375
I1861209
sV\u62cd
p2376
I186275890
sV\u6ed5
p2377
I607837
sV\u4f54
p2378
I1
sV\u54d9
p2379
I2
sV\u6262
p2380
I1
sV\u8be7
p2381
I7049115
sV\u6866
p2382
I1171721
sV\u9970
p2383
I145776715
sV\u9001
p2384
I300020410
sV\u9605
p2385
I257360834
sV\u7784
p2386
I8768153
sV\u7d88
p2387
I1
sV\u820d
p2388
I62218811
sV\u638c
p2389
I110118879
sV\u8e15
p2390
I1
sV\u5598
p2391
I18656554
sV\u5b9c
p2392
I85192819
sV\u6021
p2393
I4315505
sV\u6625
p2394
I203128685
sV\u6c29
p2395
I254125
sV\u6cbe
p2396
I9725766
sV\u5eca
p2397
I15171284
sV\u83cc
p2398
I33017527
sV\u674f
p2399
I8771870
sV\u89d0
p2400
I540107
sV\u6d53
p2401
I46528991
sV\u8fd4
p2402
I68944193
sV\u5357
p2403
I535528555
sV\u75d8
p2404
I5705394
sV\u5f5f
p2405
I1
sV\u53ec
p2406
I68368739
sV\u94ee
p2407
I1392373
sV\u80f6
p2408
I64758362
sV\u6479
p2409
I1499804
sV\u9887
p2410
I23000400
sV\u7b06
p2411
I937203
sV\u5f89
p2412
I859529
sV\u828b
p2413
I2209612
sV\u7d0a
p2414
I4119268
sV\u6912
p2415
I11187205
sV\u5316
p2416
I1047011200
sV\u7c9f
p2417
I1804349
sV\u8424
p2418
I5760904
sV\u68a7
p2419
I4219738
sV\u52ab
p2420
I22597978
sV\u54af
p2421
I5620442
sV\u683c
p2422
I833254867
sV\u75c5
p2423
I357295026
sV\u9b46
p2424
I1
sV\u874e
p2425
I6670444
sV\u57d9
p2426
I4
sV\u755a
p2427
I55052
sV\u9cdf
p2428
I262916
sV\u6162
p2429
I135574960
sV\u6b66
p2430
I231831313
sV\u4fe9
p2431
I20105047
sV\u6d6a
p2432
I147793623
sV\u74ef
p2433
I236242
sV\u9a70
p2434
I26800290
sV\u7ef3
p2435
I14731137
sV\u7280
p2436
I4673977
sV\u9505
p2437
I30992090
sV\u5807
p2438
I72306
sV\u810d
p2439
I903875
sV\u608c
p2440
I102691
sV\u6a90
p2441
I2167384
sV\u4e13
p2442
I946640283
sV\u6321
p2443
I30438032
sV\u6525
p2444
I916828
sV\u8ba6
p2445
I201790
sV\u6f29
p2446
I2201889
sV\u4ea8
p2447
I4152561
sV\u9e33
p2448
I3902078
sV\u8037
p2449
I635609
sV\u8c3f
p2450
I1
sV\u94c4
p2451
I191391
sV\u5bc6
p2452
I397311422
sV\u624b
p2453
I1617682959
sV\u80cc
p2454
I170287003
sV\u9759
p2455
I172033015
sV\u76d8
p2456
I270739810
sV\u8361
p2457
I51886875
sV\u8f69
p2458
I10097511
sV\u6ee8
p2459
I28051888
sV\u7b71
p2460
I304482
sV\u838b
p2461
I2
sV\u858f
p2462
I905205
sV\u660e
p2463
I1134384455
sV\u8f93
p2464
I244069771
sV\u5216
p2465
I2
sV\u67a3
p2466
I3848614
sV\u69a7
p2467
I67349
sV\u9cb5
p2468
I1
sV\u9042
p2469
I2386480
sV\u5544
p2470
I684230
sV\u7ec9
p2471
I302204
sV\u864e
p2472
I64500079
sV\u8852
p2473
I6
sV\u6cd5
p2474
I1745499290
sV\u7256
p2475
I8
sV\u745a
p2476
I5195346
sV\u6062
p2477
I62277926
sV\u6c6a
p2478
I7486700
sV\u916c
p2479
I20162429
sV\u7ff3
p2480
I62785
sV\u897c
p2481
I1
sV\u4e7e
p2482
I11424075
sV\u5703
p2483
I2446336
sV\u5907
p2484
I587207526
sV\u800d
p2485
I6516813
sV\u8c15
p2486
I754501
sV\u6d94
p2487
I803721
sV\u7619
p2488
I1031090
sV\u781d
p2489
I846308
sV\u9e9e
p2490
I2
sV\u80a2
p2491
I13354420
sV\u6425
p2492
I3
sV\u6e29
p2493
I235781153
sV\u4fa8
p2494
I11659732
sV\u502d
p2495
I1193688
sV\u952f
p2496
I3155066
sV\u76ae
p2497
I175136050
sV\u5a31
p2498
I141154695
sV\u62b6
p2499
I1
sV\u64ba
p2500
I136839
sV\u8d3f
p2501
I10298366
sV\u7743
p2502
I2
sV\u7947
p2503
I1
sV\u634b
p2504
I2
sV\u654f
p2505
I52779269
sV\u8bd0
p2506
I2
sV\u63e0
p2507
I62154
sV\u8e69
p2508
I592302
sV\u706d
p2509
I57141693
sV\u5bf0
p2510
I1637794
sV\u5df4
p2511
I154170221
sV\u84fa
p2512
I1
sV\u5581
p2513
I251964
sV\u9083
p2514
I3258164
sV\u5385
p2515
I95555821
sV\u9e87
p2516
I3
sV\u848b
p2517
I4125306
sV\u7b0a
p2518
I46268
sV\u610e
p2519
I289580
sV\u7a9f
p2520
I5317026
sV\u60a3
p2521
I71288352
sV\u54ab
p2522
I2090839
sV\u97ad
p2523
I8895317
sV\u9db1
p2524
I2
sV\u8fbd
p2525
I34513886
sV\u5440
p2526
I27169073
sV\u79c9
p2527
I5083215
sV\u6dd1
p2528
I6963666
sV\u6bd5
p2529
I159488796
sV\u795e
p2530
I553535756
sV\u6d66
p2531
I19456892
sV\u6b6a
p2532
I12072597
sV\u966c
p2533
I2
sV\u72ef
p2534
I117467
sV\u516e
p2535
I6075429
sV\u9a74
p2536
I6148965
sV\u66f7
p2537
I1
sV\u6cfb
p2538
I5503947
sV\u9501
p2539
I68295260
sV\u7480
p2540
I3319994
sV\u7284
p2541
I431456
sV\u870d
p2542
I429895
sV\u6c90
p2543
I5679983
sV\u7119
p2544
I931065
sV\u7f1d
p2545
I23375325
sV\u5e9c
p2546
I262712280
sV\u6325
p2547
I120166473
sV\u8baa
p2548
I3108388
sV\u572d
p2549
I1872066
sV\u7fb2
p2550
I1329655
sV\u63ba
p2551
I2313030
sV\u4f3d
p2552
I4313455
sV\u94c0
p2553
I463103
sV\u57c2
p2554
I456226
sV\u7e47
p2555
I2
sV\u644b
p2556
I1
sV\u6853
p2557
I866140
sV\u5657
p2558
I2045724
sV\u70d8
p2559
I6980865
sV\u7edc
p2560
I501095384
sV\u5cf0
p2561
I50226622
sV\u7b75
p2562
I737391
sV\u9f87
p2563
I577188
sV\u5889
p2564
I316421
sV\u7a0a
p2565
I2
sV\u600e
p2566
I477959471
sV\u521a
p2567
I202952628
sV\u6fa7
p2568
I3
sV\u9cb1
p2569
I75065
sV\u9642
p2570
I3
sV\u5948
p2571
I42147038
sV\u8e52
p2572
I1090574
sV\u81e3
p2573
I18867826
sV\u75eb
p2574
I1812530
sV\u5e72
p2575
I331491425
sV\u6dfb
p2576
I101910726
sV\u8f7c
p2577
I1191473
sV\u7384
p2578
I41784096
sV\u8c11
p2579
I1056685
sV\u5f9c
p2580
I859531
sV\u6421
p2581
I1
sV\u6829
p2582
I3482730
sV\u562d
p2583
I337800
sV\u70ae
p2584
I29591593
sV\u5c31
p2585
I1549405950
sV\u7eb2
p2586
I25738432
sV\u8737
p2587
I1635342
sV\u8d3b
p2588
I801837
sV\u4e3d
p2589
I151661283
sV\u634f
p2590
I9177684
sV\u5757
p2591
I129698607
sV\u5d5b
p2592
I39634
sV\u5b5f
p2593
I5394051
sV\u8461
p2594
I19000068
sV\u65e0
p2595
I1364196391
sV\u8869
p2596
I538329
sV\u6079
p2597
I506430
sV\u88fe
p2598
I211379
sV\u5185
p2599
I1452941799
sV\u9c87
p2600
I4
sV\u7f06
p2601
I15101461
sV\u5b89
p2602
I841515407
sV\u868b
p2603
I97130
sV\u630e
p2604
I900194
sV\u4f91
p2605
I95802
sV\u8a93
p2606
I17575497
sV\u6d12
p2607
I18821413
sV\u7e9b
p2608
I2
sV\u789f
p2609
I26300183
sV\u6ca7
p2610
I13340240
sV\u4f26
p2611
I56843570
sV\u50af
p2612
I1
sV\u5ab3
p2613
I9034367
sV\u7834
p2614
I277383414
sV\u83b9
p2615
I9205768
sV\u5640
p2616
I2
sV\u9542
p2617
I956844
sV\u6fd1
p2618
I43965
sV\u4e50
p2619
I820312888
sV\u94d7
p2620
I3
sV\u7756
p2621
I1
sV\u53d9
p2622
I12241065
sV\u9edb
p2623
I4361250
sV\u5ddd
p2624
I80551895
sV\u98df
p2625
I281912151
sV\u82e3
p2626
I268929
sV\u6562
p2627
I112674664
sV\u6f66
p2628
I950789
sV\u70ef
p2629
I11955299
sV\u536e
p2630
I2
sV\u9e70
p2631
I14599164
sV\u9701
p2632
I66206
sV\u5203
p2633
I8518590
sV\u7a88
p2634
I2215288
sV\u6e90
p2635
I592116509
sV\u5298
p2636
I1
sV\u919a
p2637
I2132861
sV\u73ae
p2638
I288569
sV\u5f31
p2639
I79771365
sV\u67b6
p2640
I102934316
sV\u96c0
p2641
I15094239
sV\u90c4
p2642
I1
sV\u5fc6
p2643
I79115807
sV\u664b
p2644
I14252390
sV\u59ca
p2645
I11002857
sV\u88d4
p2646
I5196482
sV\u7cdc
p2647
I1870054
sV\u8165
p2648
I8524174
sV\u8bfe
p2649
I238156717
sV\u5085
p2650
I17044884
sV\u818f
p2651
I10391746
sV\u620e
p2652
I1034346
sV\u4e91
p2653
I163178780
sV\u7597
p2654
I197197226
sV\u501a
p2655
I3866925
sV\u63a3
p2656
I801722
sV\u6da7
p2657
I688224
sV\u57ab
p2658
I13632373
sV\u752c
p2659
I842242
sV\u51af
p2660
I1859972
sV\u7f30
p2661
I1360116
sV\u5bb3
p2662
I216878324
sV\u7934
p2663
I1268337
sV\u82b9
p2664
I2307257
sV\u6d3c
p2665
I1573502
sV\u5740
p2666
I400640726
sV\u5144
p2667
I88944675
sV\u64cd
p2668
I224250434
sV\u6ed1
p2669
I61763760
sV\u4f50
p2670
I6261928
sV\u68d5
p2671
I4913084
sV\u7656
p2672
I1271923
sV\u8de7
p2673
I1
sV\u77eb
p2674
I5044868
sV\u956c
p2675
I3
sV\u9f70
p2676
I1
sV\u9974
p2677
I313408
sV\u65f7
p2678
I7073475
sV\u8378
p2679
I247364
sV\u69ff
p2680
I566826
sV\u9601
p2681
I22031564
sV\u9005
p2682
I3634298
sV\u7184
p2683
I4955878
sV\u5d07
p2684
I23327713
sV\u840d
p2685
I3868349
sV\u658c
p2686
I1735487
sV\u8815
p2687
I5288264
sV\u6994
p2688
I1471319
sV\u5398
p2689
I16975961
sV\u9a9e
p2690
I211233
sV\u6025
p2691
I173934765
sV\u542d
p2692
I3019893
sV\u912f
p2693
I197521
sV\u7cb2
p2694
I178294
sV\u5835
p2695
I11799880
sV\u8537
p2696
I3213791
sV\u54c2
p2697
I1
sV\u8fd0
p2698
I674301350
sV\u67e0
p2699
I6188484
sV\u55ec
p2700
I962750
sV\u6279
p2701
I223518010
sV\u80fa
p2702
I5172579
sV\u6c7d
p2703
I230212818
sV\u5981
p2704
I138307
sV\u5f85
p2705
I221253870
sV\u5589
p2706
I12944038
sV\u888b
p2707
I53632410
sV\u8e8f
p2708
I1891355
sV\u7a97
p2709
I111612258
sV\u5916
p2710
I1075884392
sV\u8428
p2711
I45743113
sV\u54b3
p2712
I11233596
sV\u7634
p2713
I628788
sV\u6c38
p2714
I137752801
sV\u83bd
p2715
I4245702
sV\u79c1
p2716
I167948924
sV\u9b42
p2717
I49451186
sV\u7fc5
p2718
I15212098
sV\u5e44
p2719
I830874
sV\u75c9
p2720
I6182746
sV\u5448
p2721
I25839030
sV\u6bcd
p2722
I167355083
sV\u8d4e
p2723
I3192557
sV\u61d1
p2724
I448247
sV\u8352
p2725
I29564253
sV\u7956
p2726
I45905903
sV\u7f5a
p2727
I51605591
sV\u6b62
p2728
I212708438
sV\u9a6c
p2729
I359584838
sV\u7eef
p2730
I6280073
sV\u5372
p2731
I1
sV\u66ff
p2732
I60292432
sV\u5207
p2733
I304960177
sV\u9509
p2734
I157108
sV\u8111
p2735
I326245071
sV\u8715
p2736
I1898608
sV\u9996
p2737
I520645096
sV\u9f9a
p2738
I262631
sV\u731d
p2739
I1742944
sV\u8ba2
p2740
I135506685
sV\u4ea4
p2741
I770310948
sV\u81a6
p2742
I123509
sV\u9e2f
p2743
I3902075
sV\u7dae
p2744
I2
sV\u73b2
p2745
I11167719
sV\u803b
p2746
I16723073
sV\u5bc2
p2747
I45279105
sV\u9ec4
p2748
I191864325
sV\u7247
p2749
I795322534
sV\u51c6
p2750
I500461780
sV\u86d4
p2751
I456936
sV\u68e0
p2752
I2929119
sV\u6ee4
p2753
I27645423
sV\u56f4
p2754
I237698432
sV\u5881
p2755
I1
sV\u7a02
p2756
I3
sV\u8f8f
p2757
I3
sV\u6212
p2758
I35637503
sV\u7b97
p2759
I446323344
sV\u5e1a
p2760
I1066288
sV\u779f
p2761
I1358060
sV\u541e
p2762
I22892729
sV\u6da3
p2763
I940696
sV\u63a7
p2764
I295943112
sV\u7b2c
p2765
I1008125158
sV\u90b1
p2766
I555144
sV\u7130
p2767
I17351006
sV\u55b3
p2768
I2977494
sV\u7734
p2769
I1
sV\u82bd
p2770
I7405840
sV\u78c1
p2771
I45012645
sV\u7ec5
p2772
I5056284
sV\u60d1
p2773
I56955244
sV\u5cd9
p2774
I3015467
sV\u745e
p2775
I46239429
sV\u8de3
p2776
I3
sV\u4ee5
p2777
L2558339594L
sV\u79eb
p2778
I453573
sV\u9170
p2779
I2778847
sV\u5272
p2780
I30316196
sV\u9774
p2781
I3747920
sV\u837c
p2782
I2007393
sV\u67ff
p2783
I3649572
sV\u7980
p2784
I2722580
sV\u4f0f
p2785
I27102676
sV\u9896
p2786
I12600705
sV\u949e
p2787
I6198151
sV\u6821
p2788
I449452850
sV\u6e25
p2789
I504654
sV\u86aa
p2790
I686991
sV\u9f2f
p2791
I1
sV\u7cae
p2792
I36274680
sV\u8b37
p2793
I2
sV\u6eba
p2794
I4450261
sV\u873f
p2795
I2030871
sV\u5ac2
p2796
I7074324
sV\u56ca
p2797
I25133884
sV\u8bcc
p2798
I361551
sV\u5b57
p2799
I615705297
sV\u575f
p2800
I4760379
sV\u8861
p2801
I54676599
sV\u8469
p2802
I635783
sV\u65e8
p2803
I27191982
sV\u51f0
p2804
I15024410
sV\u57f4
p2805
I4
sV\u6c79
p2806
I7303444
sV\u5b81
p2807
I113467605
sV\u8693
p2808
I1075681
sV\u6112
p2809
I5
sV\u7897
p2810
I12440276
sV\u8c24
p2811
I4426366
sV\u7434
p2812
I29865687
sV\u8fb9
p2813
I385633702
sV\u6e38
p2814
I739961176
sV\u603c
p2815
I206476
sV\u5a40
p2816
I927040
sV\u954a
p2817
I421113
sV\u7b56
p2818
I231387581
sV\u5fd9
p2819
I115853349
sV\u51dd
p2820
I41933085
sV\u80e7
p2821
I7382849
sV\u7cef
p2822
I2042578
sV\u64ff
p2823
I10
sV\u5e03
p2824
I709726123
sV\u9709
p2825
I16135438
sV\u7688
p2826
I767763
sV\u509c
p2827
I1
sV\u979e
p2828
I1
sV\u6b21
p2829
I929787899
sV\u6d25
p2830
I70741710
sV\u85aa
p2831
I39802477
sV\u592d
p2832
I3730252
sV\u9633
p2833
I246458089
sV\u823b
p2834
I1
sV\u9ac0
p2835
I2
sV\u9cc4
p2836
I3354698
sV\u4fce
p2837
I215799
sV\u6653
p2838
I34388087
sV\u7ed8
p2839
I33863342
sV\u915d
p2840
I5262397
sV\u70dc
p2841
I1
sV\u796d
p2842
I13197116
sV\u58ec
p2843
I2401179
sV\u8dfa
p2844
I1485895
sV\u87fe
p2845
I590884
sV\u9f83
p2846
I117524
sV\u7802
p2847
I10946517
sV\u9187
p2848
I12163200
sV\u7206
p2849
I102167917
sV\u740a
p2850
I58131
sV\u6e0e
p2851
I3080203
sV\u8793
p2852
I415018
sV\u6012
p2853
I61222201
sV\u739b
p2854
I22289171
sV\u5c1a
p2855
I145117566
sV\u759f
p2856
I496160
sV\u8d24
p2857
I8994121
sV\u61a7
p2858
I4006724
sV\u5bab
p2859
I71706047
sV\u98ad
p2860
I1
sV\u94b5
p2861
I607494
sV\u80bd
p2862
I693519
sV\u5b40
p2863
I314072
sV\u7cc5
p2864
I361744
sV\u68cd
p2865
I9445192
sV\u8052
p2866
I364725
sV\u50dd
p2867
I2
sV\u765e
p2868
I536318
sV\u6862
p2869
I213301
sV\u81e7
p2870
I116917
sV\u6266
p2871
I373367
sV\u996c
p2872
I125510
sV\u77f3
p2873
I229845329
sV\u9574
p2874
I1
sV\u8f78
p2875
I3
sV\u817c
p2876
I1595716
sV\u7b80
p2877
I546592255
sV\u5f03
p2878
I72626560
sV\u9609
p2879
I765404
sV\u6390
p2880
I1673509
sV\u9a96
p2881
I5
sV\u5f98
p2882
I6503277
sV\u519c
p2883
I328983491
sV\u6a21
p2884
I388835486
sV\u82a6
p2885
I10448842
sV\u7eae
p2886
I1
sV\u5435
p2887
I19695595
sV\u4e39
p2888
I40939533
sV\u89cc
p2889
I2
sV\u6d4f
p2890
I166140184
sV\u4ece
p2891
I365716680
sV\u6753
p2892
I2
sV\u5957
p2893
I166461663
sV\u7fd8
p2894
I4674485
sV\u905d
p2895
I1
sV\u4f63
p2896
I12713294
sV\u6de4
p2897
I2245683
sV\u59ec
p2898
I2232658
sV\u53f0
p2899
I558180416
sV\u4ff8
p2900
I456821
sV\u86fe
p2901
I1768790
sV\u7f02
p2902
I47158
sV\u5b85
p2903
I41597126
sV\u5189
p2904
I2204735
sV\u730a
p2905
I111702
sV\u4f8d
p2906
I15085730
sV\u690e
p2907
I7382348
sV\u8093
p2908
I282522
sV\u5d16
p2909
I7528667
sV\u961c
p2910
I822494
sV\u729f
p2911
I104387
sV\u8c20
p2912
I3
sV\u66a7
p2913
I6191265
sV\u8028
p2914
I4
sV\u5cab
p2915
I1
sV\u6838
p2916
I173906283
sV\u87bd
p2917
I2
sV\u663c
p2918
I3961549
sV\u5c40
p2919
I382952611
sV\u4e4c
p2920
I40517865
sV\u94db
p2921
I1619296
sV\u7b5a
p2922
I42174
sV\u715e
p2923
I6082862
sV\u6f62
p2924
I6657275
sV\u6566
p2925
I17575145
sV\u9e6c
p2926
I104913
sV\u7aef
p2927
I140483152
sV\u9274
p2928
I52072572
sV\u62ff
p2929
I169964830
sV\u7a84
p2930
I7797688
sV\u8511
p2931
I4967063
sV\u8315
p2932
I236724
sV\u6294
p2933
I1
sV\u5f2d
p2934
I324356
sV\u5531
p2935
I128883281
sV\u61be
p2936
I20676165
sV\u53ca
p2937
I421164295
sV\u82d4
p2938
I1985553
sV\u545b
p2939
I675220
sV\u8d61
p2940
I923229
sV\u6ce0
p2941
I451177
sV\u8169
p2942
I519462
sV\u60e8
p2943
I37970476
sV\u6979
p2944
I553634
sV\u8bfa
p2945
I77202459
sV\u81fe
p2946
I839865
sV\u5c81
p2947
I80999281
sV\u7406
p2948
L2308994466L
sV\u8d8b
p2949
I54409521
sV\u680e
p2950
I42030
sV\u5c16
p2951
I42735839
sV\u971c
p2952
I11760660
sV\u739f
p2953
I43669
sV\u4e22
p2954
I27848827
sV\u94b1
p2955
I304000234
sV\u7530
p2956
I72589856
sV\u51b3
p2957
I471681554
sV\u7334
p2958
I11342687
sV\u9e42
p2959
I366062
sV\u5148
p2960
I614948511
sV\u705e
p2961
I1
sV\u89e3
p2962
I820143502
sV\u626a
p2963
I459243
sV\u9570
p2964
I2091511
sV\u877c
p2965
I318389
sV\u9009
p2966
I552614694
sV\u6f8c
p2967
I1
sV\u6590
p2968
I1575713
sV\u9a9a
p2969
I20194014
sV\u761d
p2970
I3
sV\u6c21
p2971
I56424
sV\u6029
p2972
I325066
sV\u82aa
p2973
I772371
sV\u5e2d
p2974
I97327113
sV\u9b2f
p2975
I4
sV\u5431
p2976
I4484281
sV\u76b2
p2977
I154997
sV\u853b
p2978
I1465413
sV\u54c6
p2979
I3274892
sV\u6d4b
p2980
I309181714
sV\u85d0
p2981
I941128
sV\u83d4
p2982
I61769
sV\u5f57
p2983
I1421374
sV\u79d8
p2984
I140858629
sV\u555b
p2985
I2
sV\u77dc
p2986
I2007410
sV\u535f
p2987
I59225
sV\u8c61
p2988
I367556297
sV\u8069
p2989
I257743
sV\u7471
p2990
I1
sV\u7275
p2991
I33478264
sV\u80fe
p2992
I1
sV\u5f81
p2993
I146822397
sV\u5389
p2994
I53076414
sV\u710a
p2995
I13247826
sV\u6512
p2996
I2464049
sV\u7c97
p2997
I32806439
sV\u591a
p2998
I1741209447
sV\u64a7
p2999
I4
sV\u8228
p3000
I35404
sV\u52b3
p3001
I139998442
sV\u8bb9
p3002
I636798
sV\u7fc1
p3003
I17066681
sV\u73c9
p3004
I47548
sV\u914a
p3005
I470064
sV\u67d1
p3006
I2067912
sV\u9cd7
p3007
I774972
sV\u795a
p3008
I1
sV\u55dd
p3009
I562482
sV\u4fe1
p3010
I1817567878
sV\u7eeb
p3011
I816676
sV\u9074
p3012
I804845
sV\u6cf7
p3013
I1
sV\u4f76
p3014
I137185
sV\u5a03
p3015
I39381509
sV\u4e0b
p3016
L3012062934L
sV\u6c8c
p3017
I4383505
sV\u6094
p3018
I29344930
sV\u7b19
p3019
I764614
sV\u5d2d
p3020
I5655086
sV\u75b2
p3021
I28960473
sV\u8c37
p3022
I35556668
sV\u803f
p3023
I4718356
sV\u6e4b
p3024
I1
sV\u51ca
p3025
I1
sV\u86d0
p3026
I648266
sV\u6253
p3027
I739786542
sV\u80d4
p3028
I1
sV\u955d
p3029
I2
sV\u74dc
p3030
I34909522
sV\u62e8
p3031
I37160314
sV\u56f0
p3032
I103563760
sV\u95f2
p3033
I96056903
sV\u6b79
p3034
I10041683
sV\u5885
p3035
I13965736
sV\u8393
p3036
I5355547
sV\u5e16
p3037
I396701441
sV\u951c
p3038
I101670
sV\u719f
p3039
I120193802
sV\u6ba3
p3040
I3
sV\u65a7
p3041
I4832236
sV\u8328
p3042
I2915912
sV\u9cad
p3043
I1
sV\u59af
p3044
I132361
sV\u90b5
p3045
I617118
sV\u84bd
p3046
I82993
sV\u7ec1
p3047
I2
sV\u5f40
p3048
I3
sV\u78c5
p3049
I3116338
sV\u5944
p3050
I2760094
sV\u9646
p3051
I195120471
sV\u5348
p3052
I151590949
sV\u60d5
p3053
I10417825
sV\u54dd
p3054
I1642167
sV\u4ee1
p3055
I59626
sV\u8be3
p3056
I1736136
sV\u6666
p3057
I2273607
sV\u606a
p3058
I1445304
sV\u79ef
p3059
I493920342
sV\u5472
p3060
I350496
sV\u6df7
p3061
I80791382
sV\u61ff
p3062
I627978
sV\u7984
p3063
I2076625
sV\u5507
p3064
I24528847
sV\u8c0d
p3065
I8181921
sV\u6d8c
p3066
I29867291
sV\u8611
p3067
I3266599
sV\u6790
p3068
I202754021
sV\u8015
p3069
I13345122
sV\u6194
p3070
I3870931
sV\u5b98
p3071
I190373999
sV\u989a
p3072
I961319
sV\u559c
p3073
I364950402
sV\u6e21
p3074
I23233449
sV\u4fa0
p3075
I70248799
sV\u80aa
p3076
I12752280
sV\u5631
p3077
I8008322
sV\u8d37
p3078
I95915590
sV\u6eb6
p3079
I17444569
sV\u873b
p3080
I3205437
sV\u6f4b
p3081
I264243
sV\u8dcc
p3082
I55419656
sV\u575b
p3083
I574800533
sV\u6fe0
p3084
I123186
sV\u8865
p3085
I165944383
sV\u94f2
p3086
I2892537
sV\u7075
p3087
I202731714
sV\u647d
p3088
I1
sV\u8302
p3089
I8189134
sV\u5e14
p3090
I35683
sV\u6418
p3091
I1
sV\u94a3
p3092
I517651
sV\u7624
p3093
I18877507
sV\u9aa7
p3094
I11
sV\u822c
p3095
I185568341
sV\u69b1
p3096
I7
sV\u75b9
p3097
I12934529
sV\u573a
p3098
I1236834061
sV\u6342
p3099
I5351989
sV\u7b52
p3100
I15915844
sV\u62d7
p3101
I1395466
sV\u6edf
p3102
I264243
sV\u8d5e
p3103
I58493077
sV\u74e3
p3104
I5500360
sV\u5664
p3105
I941403
sV\u80eb
p3106
I532274
sV\u626c
p3107
I93965414
sV\u6101
p3108
I16850311
sV\u9890
p3109
I2912758
sV\u7f15
p3110
I6541560
sV\u679a
p3111
I10013025
sV\u602b
p3112
I2
sV\u662f
p3113
L4976607740L
sV\u85ae
p3114
I76789
sV\u8bb2
p3115
I175111738
sV\u7237
p3116
I69741237
sV\u54b8
p3117
I5106465
sV\u783b
p3118
I4
sV\u5951
p3119
I17761441
sV\u78d0
p3120
I3387886
sV\u5f55
p3121
I523820059
sV\u7ed4
p3122
I173463
sV\u6559
p3123
I1113758303
sV\u7765
p3124
I385140
sV\u5fea
p3125
I391049
sV\u65ee
p3126
I470679
sV\u5e7f
p3127
I751825919
sV\u8202
p3128
I3
sV\u6b87
p3129
I504928
sV\u8e0a
p3130
I3860048
sV\u6518
p3131
I2235977
sV\u8f9f
p3132
I10516246
sV\u5ca9
p3133
I17685127
sV\u832c
p3134
I871616
sV\u9b3c
p3135
I71751468
sV\u5c3e
p3136
I55180552
sV\u80c1
p3137
I26017004
sV\u6846
p3138
I35808224
sV\u51cb
p3139
I3095516
sV\u57cf
p3140
I1
sV\u69db
p3141
I6104158
sV\u865a
p3142
I102266459
sV\u75e3
p3143
I272314
sV\u5764
p3144
I4475848
sV\u9e6a
p3145
I3
sV\u8df3
p3146
I113323011
sV\u6f74
p3147
I96737
sV\u7578
p3148
I3962138
sV\u6001
p3149
I428258670
sV\u8180
p3150
I27198667
sV\u548e
p3151
I1923418
sV\u7811
p3152
I1
sV\u9990
p3153
I141310
sV\u5a92
p3154
I147234648
sV\u6096
p3155
I1586890
sV\u4f1f
p3156
I46844916
sV\u9021
p3157
I272951
sV\u612b
p3158
I1395825
sV\u7eaa
p3159
I198696701
sV\u672f
p3160
I896400627
sV\u7337
p3161
I2
sV\u8543
p3162
I2529363
sV\u67c4
p3163
I8732478
sV\u914b
p3164
I3100442
sV\u524d
p3165
I1246946075
sV\u5851
p3166
I84580574
sV\u5e55
p3167
I149064510
sV\u7fd4
p3168
I17155639
sV\u8bdc
p3169
I2
sV\u5eea
p3170
I90161
sV\u5377
p3171
I99360201
sV\u9a7d
p3172
I125564
sV\u8102
p3173
I38545839
sV\u4e08
p3174
I44867072
sV\u500c
p3175
I264811
sV\u970e
p3176
I3481224
sV\u5c14
p3177
I284732122
sV\u98a7
p3178
I552374
sV\u6db5
p3179
I21970336
sV\u8c34
p3180
I4897803
sV\u79bd
p3181
I28052351
sV\u83c1
p3182
I3677461
sV\u6b46
p3183
I82632
sV\u52cb
p3184
I13303146
sV\u6d4a
p3185
I3749280
sV\u91cd
p3186
I1109929546
sV\u5ed3
p3187
I4700482
sV\u9162
p3188
I121292
sV\u5464
p3189
I303996
sV\u82eb
p3190
I6
sV\u606c
p3191
I2863863
sV\u6c74
p3192
I563675
sV\u57f9
p3193
I228706810
sV\u7678
p3194
I2040517
sV\u9afb
p3195
I613384
sV\u787c
p3196
I737976
sV\u6301
p3197
I667869946
sV\u6f09
p3198
I1954003
sV\u7b11
p3199
I454777222
sV\u9a90
p3200
I347766
sV\u5992
p3201
I8962938
sV\u9c94
p3202
I245633
sV\u6396
p3203
I166414
sV\u9525
p3204
I2447953
sV\u7ba6
p3205
I1
sV\u642f
p3206
I1
sV\u7a3b
p3207
I12602065
sV\u7c3f
p3208
I9097419
sV\u514d
p3209
I557263109
sV\u5b51
p3210
I185244
sV\u9e53
p3211
I1
sV\u4fde
p3212
I117657
sV\u7565
p3213
I193885874
sV\u94e4
p3214
I499629
sV\u7f69
p3215
I19702915
sV\u816d
p3216
I193020
sV\u4e73
p3217
I48699373
sV\u69f2
p3218
I40334
sV\u8d75
p3219
I13254471
sV\u5077
p3220
I82995743
sV\u75fa
p3221
I1
sV\u997d
p3222
I978490
sV\u5c7f
p3223
I2658860
sV\u6987
p3224
I2
sV\u4f08
p3225
I2
sV\u738b
p3226
I236063262
sV\u8c0a
p3227
I18715371
sV\u758f
p3228
I18179418
sV\u960e
p3229
I2567018
sV\u5d14
p3230
I998613
sV\u6718
p3231
I3
sV\u8d9f
p3232
I7452786
sV\u52a1
p3233
I1462650813
sV\u97a3
p3234
I287525
sV\u7f28
p3235
I298654
sV\u60ad
p3236
I61564
sV\u8d34
p3237
I289350366
sV\u5236
p3238
I1191003896
sV\u9738
p3239
I50172809
sV\u82c1
p3240
I185570
sV\u53cb
p3241
I533206487
sV\u9ad1
p3242
I39081
sV\u7852
p3243
I1410558
sV\u9cd5
p3244
I274889
sV\u6bdb
p3245
I121827004
sV\u845a
p3246
I136054
sV\u5360
p3247
I112110358
sV\u77e3
p3248
I1216842
sV\u9062
p3249
I963457
sV\u5564
p3250
I12802849
sV\u79e7
p3251
I1458741
sV\u8ff3
p3252
I722991
sV\u6d74
p3253
I34630507
sV\u56f9
p3254
I258478
sV\u797c
p3255
I46797
sV\u6405
p3256
I9598114
sV\u8584
p3257
I46523296
sV\u8f88
p3258
I54388804
sV\u918c
p3259
I82993
sV\u568e
p3260
I2693994
sV\u5892
p3261
I234827
sV\u6296
p3262
I22597430
sV\u5723
p3263
I81652483
sV\u5927
p3264
L4371109243L
sV\u7aa6
p3265
I1460827
sV\u9e29
p3266
I189134
sV\u632b
p3267
I11796842
sV\u7caa
p3268
I3943151
sV\u652f
p3269
I511211475
sV\u6f33
p3270
I3640009
sV\u94ba
p3271
I6
sV\u9ebe
p3272
I1305767
sV\u65c4
p3273
I1
sV\u4e49
p3274
I344072318
sV\u954f
p3275
I128206
sV\u5a51
p3276
I1
sV\u5c55
p3277
I950602116
sV\u89dc
p3278
I2
sV\u4ede
p3279
I3
sV\u7261
p3280
I8418560
sV\u5ae6
p3281
I1543399
sV\u5cea
p3282
I251217
sV\u4f73
p3283
I125566203
sV\u5177
p3284
I632035425
sV\u72f6
p3285
I1
sV\u987d
p3286
I17658653
sV\u7efe
p3287
I1
sV\u6083
p3288
I2
sV\u8702
p3289
I18588440
sV\u748b
p3290
I1381545
sV\u560c
p3291
I303996
sV\u7893
p3292
I36039
sV\u4f9d
p3293
I220311444
sV\u90a3
p3294
I1164166169
sV\u53a5
p3295
I2760814
sV\u59a9
p3296
I5424166
sV\u67ad
p3297
I1807204
sV\u6bb5
p3298
I286487359
sV\u71b9
p3299
I651757
sV\u9038
p3300
I13745201
sV\u533a
p3301
I780560770
sV\u7fbd
p3302
I22852562
sV\u6742
p3303
I121269120
sV\u83c5
p3304
I146882
sV\u4ec7
p3305
I30944416
sV\u6d46
p3306
I12176377
sV\u89c9
p3307
I510785569
sV\u714e
p3308
I5017523
sV\u6cdb
p3309
I54769881
sV\u835a
p3310
I176240
sV\u4e5c
p3311
I1
sV\u895e
p3312
I63093
sV\u9762
p3313
I1752779580
sV\u7ee7
p3314
I167519685
sV\u666c
p3315
I1
sV\u82ef
p3316
I6327832
sV\u6c70
p3317
I10784634
sV\u88f3
p3318
I4536449
sV\u96f7
p3319
I80569472
sV\u51f9
p3320
I4695427
sV\u7078
p3321
I2058992
sV\u5ffd
p3322
I82415560
sV\u8888
p3323
I549523
sV\u9c90
p3324
I1
sV\u5f92
p3325
I47214173
sV\u7b15
p3326
I72244
sV\u9521
p3327
I19176861
sV\u77a2
p3328
I1
sV\u5e27
p3329
I3848832
sV\u7da6
p3330
I1
sV\u7baa
p3331
I9
sV\u7a3f
p3332
I60826590
sV\u64c0
p3333
I103552
sV\u62c4
p3334
I553371
sV\u8e47
p3335
I19
sV\u574d
p3336
I1893055
sV\u5b55
p3337
I41790842
sV\u94e0
p3338
I2233180
sV\u5de6
p3339
I155869803
sV\u98e8
p3340
I235766
sV\u5a7f
p3341
I3583777
sV\u79fe
p3342
I1
sV\u8c06
p3343
I733018
sV\u8797
p3344
I1
sV\u91a3
p3345
I167695
sV\u58a9
p3346
I942934
sV\u6cb1
p3347
I881902
sV\u8d30
p3348
I98383
sV\u4e32
p3349
I30619947
sV\u70b9
p3350
I1718447465
sV\u523a
p3351
I92513625
sV\u7ebd
p3352
I29493110
sV\u96cd
p3353
I2706533
sV\u59d3
p3354
I98265380
sV\u4f5c
p3355
L2584299763L
sV\u9662
p3356
I522998944
sV\u5364
p3357
I2338311
sV\u6401
p3358
I6503398
sV\u6809
p3359
I334241
sV\u8988
p3360
I2
sV\u8019
p3361
I299062
sV\u629a
p3362
I28807604
sV\u8e1d
p3363
I1548404
sV\u5f27
p3364
I6436194
sV\u652b
p3365
I563195
sV\u632f
p3366
I36952309
sV\u80ae
p3367
I2710361
sV\u8eb2
p3368
I29924920
sV\u7737
p3369
I6250955
sV\u5fbc
p3370
I2
sV\u63c4
p3371
I629349
sV\u564d
p3372
I1
sV\u5c51
p3373
I12287554
sV\u5a55
p3374
I146190
sV\u6059
p3375
I1785601
sV\u8fdc
p3376
I330957299
sV\u56e2
p3377
I365139649
sV\u5ce6
p3378
I1498781
sV\u60ee
p3379
I2553664
sV\u5777
p3380
I2977946
sV\u74f6
p3381
I46681096
sV\u6283
p3382
I3
sV\u768b
p3383
I2
sV\u540c
p3384
I1275529626
sV\u5e10
p3385
I66389899
sV\u6218
p3386
I570164126
sV\u57a1
p3387
I41255
sV\u7620
p3388
I886553
sV\u51a5
p3389
I11012383
sV\u65ad
p3390
I280857412
sV\u8bc9
p3391
I242023395
sV\u50cf
p3392
I389220113
sV\u64d7
p3393
I3
sV\u996a
p3394
I2880953
sV\u80ef
p3395
I920295
sV\u4ff1
p3396
I64038265
sV\u6874
p3397
I1
sV\u53f9
p3398
I57277434
sV\u9efb
p3399
I5
sV\u7c7c
p3400
I516677
sV\u8680
p3401
I9676805
sV\u8084
p3402
I205932
sV\u750d
p3403
I4
sV\u9894
p3404
I1534302
sV\u4e1b
p3405
I23476309
sV\u8d1d
p3406
I83846329
sV\u5c27
p3407
I644571
sV\u602f
p3408
I6487404
sV\u7e3b
p3409
I1
sV\u91ba
p3410
I1017694
sV\u8c47
p3411
I191833
sV\u964b
p3412
I7820590
sV\u904f
p3413
I6172546
sV\u5955
p3414
I1934740
sV\u78d4
p3415
I2
sV\u7761
p3416
I109185992
sV\u96e0
p3417
I9
sV\u90e4
p3418
I4
sV\u8f71
p3419
I199094
sV\u5477
p3420
I3
sV\u77f6
p3421
I4432029
sV\u5e7b
p3422
I138135977
sV\u8e06
p3423
I1
sV\u778b
p3424
I4
sV\u718f
p3425
I4676566
sV\u7b93
p3426
I2
sV\u5914
p3427
I2
sV\u8f9b
p3428
I47364744
sV\u7720
p3429
I44212320
sV\u50a5
p3430
I269488
sV\u7b28
p3431
I10796548
sV\u64ad
p3432
I247240043
sV\u852c
p3433
I21741822
sV\u6eb1
p3434
I63251
sV\u68b5
p3435
I2127932
sV\u8934
p3436
I609522
sV\u5636
p3437
I4237823
sV\u72b9
p3438
I41960794
sV\u503a
p3439
I48195211
sV\u7cbd
p3440
I2122362
sV\u57cb
p3441
I24134564
sV\u684a
p3442
I1
sV\u94cd
p3443
I72166
sV\u51cf
p3444
I144250489
sV\u9ed1
p3445
I259161581
sV\u5bd3
p3446
I22745199
sV\u98d5
p3447
I1308038
sV\u65d7
p3448
I47847957
sV\u805a
p3449
I86193112
sV\u69df
p3450
I2807060
sV\u5760
p3451
I13697016
sV\u9e66
p3452
I2676285
sV\u656c
p3453
I59335407
sV\u8bf3
p3454
I111279
sV\u95f7
p3455
I42395284
sV\u6005
p3456
I3288656
sV\u4e86
p3457
L2844871855L
sV\u9994
p3458
I45039
sV\u6696
p3459
I58094541
sV\u4f1b
p3460
I44601
sV\u609a
p3461
I5571001
sV\u9621
p3462
I351746
sV\u5323
p3463
I1311284
sV\u5d27
p3464
I1
sV\u7ea6
p3465
I237394432
sV\u672b
p3466
I59542240
sV\u7537
p3467
I415414122
sV\u96b6
p3468
I11164540
sV\u90ba
p3469
I1
sV\u8343
p3470
I1
sV\u8d47
p3471
I1
sV\u75cc
p3472
I1
sV\u83d8
p3473
I1
sV\u6c5d
p3474
I769802
sV\u846d
p3475
I6
sV\u62ee
p3476
I707748
sV\u5577
p3477
I451614
sV\u5f7b
p3478
I77880826
sV\u70fa
p3479
I2
sV\u6c83
p3480
I13714563
sV\u8106
p3481
I27312102
sV\u870a
p3482
I278700
sV\u5a0c
p3483
I132361
sV\u809b
p3484
I2827389
sV\u7820
p3485
I1
sV\u7428
p3486
I63849
sV\u67b5
p3487
I1
sV\u5f3a
p3488
I620766686
sV\u553e
p3489
I3725368
sV\u89c1
p3490
I697985527
sV\u8fc5
p3491
I71116517
sV\u85c9
p3492
I7839583
sV\u91d1
p3493
I918997302
sV\u54d3
p3494
I2
sV\u7352
p3495
I797077
sV\u60db
p3496
I1
sV\u72e7
p3497
I1
sV\u5468
p3498
I321578559
sV\u6070
p3499
I28918349
sV\u6674
p3500
I14373020
sV\u53fd
p3501
I2831369
sV\u6901
p3502
I111732
sV\u9a8c
p3503
I394684708
sV\u9694
p3504
I55826703
sV\u831d
p3505
I1
sV\u77aa
p3506
I19639031
sV\u6e2f
p3507
I203112606
sV\u83b2
p3508
I23926495
sV\u7a37
p3509
I933247
sV\u5cb8
p3510
I51140845
sV\u68c0
p3511
I269610439
sV\u8247
p3512
I12879789
sV\u9e4f
p3513
I6004821
sV\u5151
p3514
I13901501
sV\u76d4
p3515
I7457066
sV\u6d59
p3516
I86488954
sV\u4fda
p3517
I401428
sV\u82dc
p3518
I563225
sV\u6dee
p3519
I7398723
sV\u8171
p3520
I362896
sV\u5a77
p3521
I6233962
sV\u507b
p3522
I665143
sV\u6387
p3523
I340630
sV\u8006
p3524
I129685
sV\u819b
p3525
I5805562
sV\u879f
p3526
I122789
sV\u5ea5
p3527
I1
sV\u7f24
p3528
I5375070
sV\u54a9
p3529
I743004
sV\u7528
p3530
L2812531456L
sV\u60b1
p3531
I381420
sV\u8130
p3532
I2
sV\u8734
p3533
I1279522
sV\u7cb9
p3534
I13432999
sV\u543e
p3535
I5851402
sV\u88c1
p3536
I57300303
sV\u84c9
p3537
I15034893
sV\u59cb
p3538
I390536849
sV\u5fcf
p3539
I2354518
sV\u90d1
p3540
I33687214
sV\u55d3
p3541
I10769877
sV\u7252
p3542
I603207
sV\u96d5
p3543
I31432311
sV\u6bd7
p3544
I2152881
sV\u5960
p3545
I9193076
sV\u5f64
p3546
I1709907
sV\u966a
p3547
I44301384
sV\u6170
p3548
I37380588
sV\u6e05
p3549
I475649508
sV\u8f84
p3550
I1684620
sV\u7a0d
p3551
I40902547
sV\u7011
p3552
I6652869
sV\u9190
p3553
I337608
sV\u8c19
p3554
I1231238
sV\u649e
p3555
I42528227
sV\u9e25
p3556
I1456823
sV\u94be
p3557
I1939001
sV\u8d43
p3558
I2588809
sV\u4e45
p3559
I203916651
sV\u7bcc
p3560
I97476
sV\u6c59
p3561
I1
sV\u83dc
p3562
I131911858
sV\u95e8
p3563
I940928777
sV\u4f6f
p3564
I1216932
sV\u6cee
p3565
I2
sV\u8071
p3566
I8
sV\u8675
p3567
I1
sV\u517b
p3568
I225613487
sV\u6e83
p3569
I17097931
sV\u8902
p3570
I1517447
sV\u9f0e
p3571
I12382031
sV\u7693
p3572
I1412815
sV\u601c
p3573
I32890068
sV\u5ba1
p3574
I170271578
sV\u7a20
p3575
I1574781
sV\u57a9
p3576
I259818
sV\u69ad
p3577
I1171198
sV\u8230
p3578
I33325782
sV\u65b5
p3579
I1
sV\u7fb9
p3580
I930944
sV\u903c
p3581
I31977994
sV\u573e
p3582
I39734901
sV\u8bc1
p3583
I629109049
sV\u4ec3
p3584
I207212
sV\u6942
p3585
I1094074
sV\u8dc5
p3586
I3
sV\u6346
p3587
I6853618
sV\u4e58
p3588
I49742117
sV\u62db
p3589
I329779842
sV\u8d5a
p3590
I76683131
sV\u7ee3
p3591
I11026540
sV\u70e7
p3592
I67129486
sV\u5668
p3593
I716149133
sV\u956a
p3594
I1
sV\u6270
p3595
I43930836
sV\u86f3
p3596
I211306
sV\u51fd
p3597
I27372058
sV\u707c
p3598
I6047405
sV\u94ff
p3599
I1348145
sV\u6709
p3600
L5790703730L
sV\u988c
p3601
I1045558
sV\u5192
p3602
I70987878
sV\u7515
p3603
I2
sV\u6b96
p3604
I32935626
sV\u679e
p3605
I67267
sV\u6c2f
p3606
I7507179
sV\u7837
p3607
I36331
sV\u5eb8
p3608
I9933190
sV\u723b
p3609
I621862
sV\u6cc4
p3610
I26959051
sV\u5351
p3611
I14861868
sV\u72d0
p3612
I43851183
sV\u5555
p3613
I650774
sV\u615d
p3614
I1
sV\u80dc
p3615
I126401915
sV\u53e6
p3616
I244059057
sV\u96e8
p3617
I115199009
sV\u55ea
p3618
I259798
sV\u6fee
p3619
I2411200
sV\u547f
p3620
I1
sV\u77fe
p3621
I303819
sV\u8206
p3622
I8056839
sV\u5310
p3623
I836677
sV\u9012
p3624
I54134478
sV\u5514
p3625
I7550035
sV\u839b
p3626
I3
sV\u7b20
p3627
I761024
sV\u7728
p3628
I9706575
sV\u68ad
p3629
I7326000
sV\u62b1
p3630
I87749405
sV\u64b5
p3631
I197936
sV\u5a36
p3632
I7573282
sV\u7eb9
p3633
I29939217
sV\u5c3a
p3634
I59271864
sV\u70bd
p3635
I3924694
sV\u4fc3
p3636
I114939223
sV\u6842
p3637
I20712257
sV\u86c9
p3638
I33531
sV\u644a
p3639
I15285890
sV\u4f58
p3640
I539164
sV\u8c5a
p3641
I3231717
sV\u865e
p3642
I1462204
sV\u71e7
p3643
I76541
sV\u8beb
p3644
I3395394
sV\u8def
p3645
I634666087
sV\u6370
p3646
I2
sV\u6574
p3647
I478390367
sV\u50fd
p3648
I2
sV\u6c05
p3649
I134657
sV\u8d84
p3650
I382224
sV\u8788
p3651
I65215
sV\u780d
p3652
I13575861
sV\u998c
p3653
I1
sV\u80b2
p3654
I594625906
sV\u733b
p3655
I1
sV\u51bc
p3656
I89652
sV\u96be
p3657
I441965909
sV\u6dc4
p3658
I6702306
sV\u5251
p3659
I96797608
sV\u73d0
p3660
I319011
sV\u9753
p3661
I12939418
sV\u5455
p3662
I6892790
sV\u75d4
p3663
I1219524
sV\u8fd8
p3664
I1143960793
sV\u7c65
p3665
I4
sV\u54ea
p3666
I173926874
sV\u8475
p3667
I4778148
sV\u537b
p3668
I1
sV\u907d
p3669
I399463
sV\u76fe
p3670
I34831615
sV\u6687
p3671
I7084516
sV\u5e0c
p3672
I228321701
sV\u5410
p3673
I34073921
sV\u829f
p3674
I1
sV\u7c20
p3675
I1
sV\u5ba5
p3676
I63739
sV\u96a7
p3677
I5958557
sV\u6fad
p3678
I1
sV\u8e2c
p3679
I1
sV\u79b9
p3680
I1028707
sV\u77bd
p3681
I7
sV\u8bc5
p3682
I6020560
sV\u5ccb
p3683
I635456
sV\u8d56
p3684
I35629820
sV\u62df
p3685
I84462173
sV\u5c60
p3686
I13930865
sV\u4fed
p3687
I4011328
sV\u80f3
p3688
I6761333
sV\u59f9
p3689
I322313
sV\u57fd
p3690
I1
sV\u6d01
p3691
I69495743
sV\u6109
p3692
I21261595
sV\u7511
p3693
I5
sV\u5792
p3694
I8232123
sV\u7315
p3695
I1014439
sV\u6b9a
p3696
I220623
sV\u5627
p3697
I427532
sV\u4eac
p3698
I492740123
sV\u6a2f
p3699
I2
sV\u56bc
p3700
I3894076
sV\u7ecc
p3701
I305338
sV\u9053
p3702
I1431240578
sV\u5355
p3703
I697474792
sV\u88d8
p3704
I494566
sV\u55e6
p3705
I4924994
sV\u90e8
p3706
I1336218007
sV\u53ea
p3707
I1055642345
sV\u8f6d
p3708
I140831
sV\u547b
p3709
I6277730
sV\u527f
p3710
I2887048
sV\u6787
p3711
I776038
sV\u5510
p3712
I40431536
sV\u9612
p3713
I4
sV\u8f97
p3714
I3004760
sV\u859b
p3715
I679213
sV\u7d20
p3716
I259724157
sV\u7b24
p3717
I116322
sV\u62b5
p3718
I57771306
sV\u8334
p3719
I644177
sV\u503e
p3720
I48601131
sV\u6446
p3721
I61690951
sV\u9ecd
p3722
I79704
sV\u784e
p3723
I3
sV\u79e3
p3724
I233063
sV\u9e62
p3725
I2
sV\u5b64
p3726
I57861681
sV\u5168
p3727
I1605124866
sV\u8deb
p3728
I3
sV\u8bef
p3729
I148380257
sV\u6570
p3730
I1305262386
sV\u81f3
p3731
I342475412
sV\u58f9
p3732
I229985
sV\u7978
p3733
I21617441
sV\u95fb
p3734
I346268348
sV\u56fd
p3735
L3749328715L
sV\u8188
p3736
I112997
sV\u9f8c
p3737
I1338563
sV\u4f17
p3738
I270045007
sV\u8819
p3739
I6
sV\u7ea2
p3740
I282532075
sV\u4fac
p3741
I97555
sV\u9cb6
p3742
I350788
sV\u753b
p3743
I225937151
sV\u733f
p3744
I1976461
sV\u6dc0
p3745
I11576199
sV\u8747
p3746
I4849101
sV\u61c8
p3747
I10071943
sV\u7fcc
p3748
I1536750
sV\u9b4f
p3749
I4368084
sV\u54e6
p3750
I3027725
sV\u8e6d
p3751
I1093491
sV\u68ee
p3752
I56901661
sV\u8471
p3753
I7529073
sV\u66f2
p3754
I302392075
sV\u5f77
p3755
I5883203
sV\u9879
p3756
I478553274
sV\u557b
p3757
I648792
sV\u7afa
p3758
I1226426
sV\u537f
p3759
I3953179
sV\u4e00
p3760
L8375236130L
sV\u6487
p3761
I3357554
sV\u810a
p3762
I15935174
sV\u9512
p3763
I184378
sV\u5014
p3764
I3444191
sV\u641c
p3765
I274515891
sV\u5fa1
p3766
I28156492
sV\u59a5
p3767
I20500692
sV\u94a7
p3768
I2005238
sV\u53a9
p3769
I448635
sV\u7228
p3770
I9
sV\u8c2c
p3771
I3276634
sV\u593a
p3772
I51623407
sV\u75bd
p3773
I639288
sV\u533e
p3774
I1244570
sV\u8fc1
p3775
I33246094
sV\u89c5
p3776
I5987280
sV\u6746
p3777
I21559254
sV\u5ecb
p3778
I3
sV\u6cd7
p3779
I8
sV\u60df
p3780
I13307691
sV\u835e
p3781
I1121341
sV\u7ae3
p3782
I8776616
sV\u9766
p3783
I2
sV\u916a
p3784
I2892434
sV\u6670
p3785
I35537331
sV\u9cf7
p3786
I1
sV\u5bf9
p3787
I1431816430
sV\u55fd
p3788
I5255724
sV\u6905
p3789
I29334303
sV\u8884
p3790
I939236
sV\u6309
p3791
I197558340
sV\u9690
p3792
I117358676
sV\u7115
p3793
I3124607
sV\u639e
p3794
I1
sV\u5427
p3795
I152204566
sV\u6e2b
p3796
I2
sV\u8bae
p3797
I453741364
sV\u6233
p3798
I1382746
sV\u62c8
p3799
I578436
sV\u7ccc
p3800
I113398
sV\u5751
p3801
I7302805
sV\u76d0
p3802
I17808372
sV\u5155
p3803
I1
sV\u6b59
p3804
I1
sV\u655d
p3805
I378205
sV\u7f61
p3806
I1347133
sV\u9ee0
p3807
I1079765
sV\u5de2
p3808
I7522840
sV\u7965
p3809
I24267532
sV\u8d6d
p3810
I123655
sV\u567b
p3811
I625375
sV\u507f
p3812
I56062954
sV\u6b83
p3813
I1852157
sV\u6587
p3814
I2141563905
sV\u798f
p3815
I231557577
sV\u7f20
p3816
I25953844
sV\u95a7
p3817
I1
sV\u52a9
p3818
I341700890
sV\u8d2c
p3819
I4562098
sV\u7ab9
p3820
I1
sV\u6c42
p3821
I673487220
sV\u88c5
p3822
I710612907
sV\u9ccd
p3823
I525875
sV\u75e7
p3824
I340987
sV\u8feb
p3825
I52473069
sV\u6770
p3826
I38361438
sV\u6174
p3827
I1
sV\u54fd
p3828
I2913209
sV\u6805
p3829
I4750466
sV\u5492
p3830
I15251354
sV\u841d
p3831
I12664545
sV\u9e21
p3832
I58912796
sV\u5527
p3833
I2948432
sV\u76a6
p3834
I3
sV\u6f2b
p3835
I141536662
sV\u84b2
p3836
I3422670
sV\u5bb8
p3837
I299840
sV\u6fc0
p3838
I245922157
sV\u7dcc
p3839
I1
sV\u5055
p3840
I1823258
sV\u71d4
p3841
I3
sV\u4ed6
p3842
I2124495765
sV\u6a59
p3843
I5646152
sV\u8bd8
p3844
I484944
sV\u85dc
p3845
I230855
sV\u7269
p3846
I857556129
sV\u50ea
p3847
I1
sV\u8671
p3848
I460195
sV\u7ef6
p3849
I124182
sV\u9a79
p3850
I965717
sV\u78fa
p3851
I2282587
sV\u7483
p3852
I48421437
sV\u6c93
p3853
I1069261
sV\u4e14
p3854
I271311620
sV\u5599
p3855
I85445
sV\u989b
p3856
I212744
sV\u5b9d
p3857
I256096887
sV\u9e9f
p3858
I5041722
sV\u6020
p3859
I3810695
sV\u6c28
p3860
I10367380
sV\u552e
p3861
I374571510
sV\u65b9
p3862
I1996449239
sV\u8438
p3863
I370574
sV\u6bbd
p3864
I1
sV\u89d1
p3865
I2695229
sV\u72d7
p3866
I54845948
sV\u9156
p3867
I3
sV\u5458
p3868
I1270735623
sV\u7edf
p3869
I866888057
sV\u53ed
p3870
I6675013
sV\u96ef
p3871
I1304768
sV\u59f1
p3872
I1
sV\u5ff5
p3873
I237883990
sV\u82f7
p3874
I676544
sV\u6478
p3875
I51049037
sV\u6a7c
p3876
I176126
sV\u9080
p3877
I37385727
sV\u5382
p3878
I223658836
sV\u5986
p3879
I36675601
sV\u9c88
p3880
I394428
sV\u5f8a
p3881
I6503280
sV\u6f15
p3882
I1099471
sV\u5217
p3883
I436136845
sV\u9519
p3884
I323028906
sV\u779a
p3885
I1
sV\u63a2
p3886
I114156518
sV\u8725
p3887
I1363475
sV\u8d29
p3888
I11030371
sV\u52ac
p3889
I2
sV\u6237
p3890
I705944050
sV\u87ba
p3891
I20379451
sV\u8dbe
p3892
I2516536
sV\u5141
p3893
I43769606
sV\u804b
p3894
I4364862
sV\u62cc
p3895
I6966152
sV\u864f
p3896
I3537405
sV\u4f55
p3897
I661410584
sV\u6ed4
p3898
I7509747
sV\u7559
p3899
I450835984
sV\u57da
p3900
I186250
sV\u7b5d
p3901
I6259190
sV\u5dde
p3902
I389748705
sV\u80e0
p3903
I1
sV\u6765
p3904
L2802542206L
sV\u86e4
p3905
I2272021
sV\u6d69
p3906
I18409245
sV\u4fea
p3907
I326998
sV\u9971
p3908
I19965464
sV\u7bf2
p3909
I1
sV\u5704
p3910
I258478
sV\u618b
p3911
I1904406
sV\u840e
p3912
I8381075
sV\u6d93
p3913
I1187930
sV\u5499
p3914
I5230829
sV\u7518
p3915
I45662021
sV\u9f9f
p3916
I10353782
sV\u6120
p3917
I340394
sV\u8ba7
p3918
I579063
sV\u542e
p3919
I1788841
sV\u78b1
p3920
I6964180
sV\u5a32
p3921
I1467805
sV\u7eb5
p3922
I45460549
sV\u90c1
p3923
I61282818
sV\u96c5
p3924
I84494680
sV\u5bc7
p3925
I4203894
sV\u82cd
p3926
I34097010
sV\u5b5c
p3927
I3695054
sV\u7fdf
p3928
I92536
sV\u7f74
p3929
I3
sV\u6b7c
p3930
I3574143
sV\u5e8a
p3931
I113592812
sV\u620d
p3932
I413629
sV\u6811
p3933
I126031915
sV\u8f94
p3934
I12
sV\u5317
p3935
I664244774
sV\u7096
p3936
I1054170
sV\u5f1f
p3937
I149089997
sV\u62a2
p3938
I65876861
sV\u68a6
p3939
I140248995
sV\u8c29
p3940
I929229
sV\u6eaa
p3941
I11099740
sV\u772f
p3942
I7772181
sV\u94ae
p3943
I24487635
sV\u9b47
p3944
I1349325
sV\u5c49
p3945
I3267649
sV\u814b
p3946
I1684637
sV\u69d0
p3947
I2358200
sV\u8d53
p3948
I183846
sV\u7459
p3949
I2029170
sV\u56da
p3950
I5943305
sV\u6c69
p3951
I1322502
sV\u8de8
p3952
I36170866
sV\u516b
p3953
I218836980
sV\u4eea
p3954
I114743490
sV\u576f
p3955
I2497211
sV\u74ee
p3956
I393276
sV\u60f6
p3957
I8222379
sV\u4f7f
p3958
I815168208
sV\u6cfe
p3959
I353653
sV\u5200
p3960
I91194435
sV\u9102
p3961
I996834
sV\u5404
p3962
I645683340
sV\u5e08
p3963
I587932004
sV\u870e
p3964
I1
sV\u6e93
p3965
I2
sV\u8912
p3966
I1617698
sV\u7618
p3967
I144728
sV\u9a9b
p3968
I226815
sV\u781c
p3969
I44745
sV\u9c9f
p3970
I263909
sV\u86a3
p3971
I1156168
sV\u6424
p3972
I2
sV\u4fa9
p3973
I217711
sV\u7bb1
p3974
I153027895
sV\u674e
p3975
I73794396
sV\u8bd1
p3976
I63047990
sV\u4ed3
p3977
I35499579
sV\u5658
p3978
I156281
sV\u7cdf
p3979
I17492078
sV\u8b66
p3980
I197577183
sV\u8d6a
p3981
I1
sV\u51ed
p3982
I43758479
sV\u7a70
p3983
I6
sV\u7301
p3984
I72719
sV\u7f09
p3985
I5803263
sV\u9e88
p3986
I1
sV\u808c
p3987
I42411070
sV\u8c94
p3988
I257013
sV\u759a
p3989
I6103841
sV\u7f9e
p3990
I24146475
sV\u50ac
p3991
I18119257
sV\u742f
p3992
I1
sV\u8fbe
p3993
I424143651
sV\u5341
p3994
I845572356
sV\u7ec8
p3995
I294315915
sV\u6cd4
p3996
I162232
sV\u53d6
p3997
I418834956
sV\u795d
p3998
I68293309
sV\u6361
p3999
I7821143
sV\u77ee
p4000
I8520794
sV\u5e73
p4001
I775255683
sV\u63f6
p4002
I629349
sV\u65fa
p4003
I18995208
sV\u5300
p4004
I11937356
sV\u9002
p4005
I269348811
sV\u5f08
p4006
I3522328
sV\u6320
p4007
I3115584
sV\u4ea9
p4008
I3335912
sV\u70ad
p4009
I20873783
sV\u66b9
p4010
I239136
sV\u4e3e
p4011
I240850607
sV\u57c3
p4012
I22362973
sV\u94c5
p4013
I5984727
sV\u7a46
p4014
I7905508
sV\u9e5e
p4015
I171874
sV\u8c6a
p4016
I70006459
sV\u50ed
p4017
I112331
sV\u95ef
p4018
I14343928
sV\u8bfb
p4019
I384061736
sV\u697c
p4020
I266734196
sV\u7405
p4021
I2261909
sV\u9f88
p4022
I914462
sV\u600d
p4023
I2
sV\u8d94
p4024
I382224
sV\u5117
p4025
I2
sV\u9619
p4026
I689203
sV\u5b1b
p4027
I1
sV\u5d1f
p4028
I1
sV\u8425
p4029
I584875947
sV\u8e29
p4030
I8067937
sV\u732b
p4031
I30284089
sV\u6caa
p4032
I13997816
sV\u51ac
p4033
I57942072
sV\u5bb0
p4034
I10986111
sV\u84ba
p4035
I230852
sV\u5241
p4036
I317072
sV\u73c0
p4037
I3027815
sV\u8f53
p4038
I2
sV\u54da
p4039
I144047
sV\u785d
p4040
I5458841
sV\u83e0
p4041
I4545030
sV\u85e4
p4042
I7329330
sV\u536b
p4043
I202901561
sV\u906d
p4044
I58483795
sV\u76ee
p4045
I1001433225
sV\u9a71
p4046
I86599523
sV\u8679
p4047
I23844751
sV\u887d
p4048
I4
sV\u6893
p4049
I567391
sV\u9697
p4050
I2
sV\u5199
p4051
I299786263
sV\u6420
p4052
I1
sV\u77ad
p4053
I1056099
sV\u962c
p4054
I1
sV\u8038
p4055
I8987663
sV\u614e
p4056
I30166952
sV\u8dd1
p4057
I106900278
sV\u8bd5
p4058
I572972630
sV\u76d7
p4059
I71467161
sV\u9556
p4060
I8647941
sV\u7adf
p4061
I147700543
sV\u8d66
p4062
I1830374
sV\u5df1
p4063
I864069753
sV\u7a74
p4064
I14616986
sV\u6078
p4065
I608533
sV\u5782
p4066
I30274019
sV\u9888
p4067
I17888282
sV\u670d
p4068
I1082132876
sV\u868c
p4069
I2327854
sV\u7596
p4070
I41472
sV\u9119
p4071
I13021769
sV\u5a1f
p4072
I3140775
sV\u8521
p4073
I2915419
sV\u67a2
p4074
I6433071
sV\u4e27
p4075
I26952681
sV\u6da6
p4076
I73402768
sV\u6baa
p4077
I1
sV\u56ac
p4078
I1
sV\u91ae
p4079
I1
sV\u83ba
p4080
I2627086
sV\u5541
p4081
I116216
sV\u72c4
p4082
I855830
sV\u5949
p4083
I29683011
sV\u6cd0
p4084
I1
sV\u55d6
p4085
I930084
sV\u9edc
p4086
I176190
sV\u88e8
p4087
I446511
sV\u526f
p4088
I139343368
sV\u71ee
p4089
I210776
sV\u65f6
p4090
L3147084162L
sV\u8179
p4091
I29974360
sV\u8f7d
p4092
I1220334988
sV\u9602
p4093
I1075415
sV\u658b
p4094
I8638555
sV\u638f
p4095
I10925485
sV\u7118
p4096
I198714
sV\u7f1c
p4097
I927903
sV\u6324
p4098
I24141068
sV\u7cb1
p4099
I1065190
sV\u8138
p4100
I187523697
sV\u94c1
p4101
I168349949
sV\u77d7
p4102
I1491088
sV\u8662
p4103
I83024
sV\u56ed
p4104
I275651437
sV\u776c
p4105
I2253730
sV\u8dfb
p4106
I2275008
sV\u4efd
p4107
I316227121
sV\u6f7c
p4108
I1
sV\u8bff
p4109
I534828
sV\u7809
p4110
I1
sV\u9988
p4111
I42554262
sV\u6c11
p4112
I1004193995
sV\u4e92
p4113
I220376177
sV\u5d1b
p4114
I8617260
sV\u9e1d
p4115
I1
sV\u4f27
p4116
I50780
sV\u6ca6
p4117
I8379767
sV\u752b
p4118
I1813895
sV\u90ae
p4119
I286581433
sV\u5bb4
p4120
I15506004
sV\u6d3b
p4121
I831801839
sV\u6b3f
p4122
I1
sV\u834f
p4123
I312181
sV\u6bd4
p4124
I692072327
sV\u6869
p4125
I5162495
sV\u536f
p4126
I1934623
sV\u5973
p4127
I1085713527
sV\u5600
p4128
I4975633
sV\u9502
p4129
I6986951
sV\u5a08
p4130
I157530
sV\u830e
p4131
I10858158
sV\u4e10
p4132
I7222156
sV\u9497
p4133
I1456223
sV\u6620
p4134
I71937966
sV\u6a28
p4135
I293696
sV\u532e
p4136
I1872566
sV\u9e30
p4137
I1
sV\u52c3
p4138
I20542340
sV\u634e
p4139
I571312
sV\u8fd1
p4140
I371544585
sV\u6d52
p4141
I1560483
sV\u9756
p4142
I4518044
sV\u7edb
p4143
I111073
sV\u915a
p4144
I1752224
sV\u62e3
p4145
I1027701
sV\u8f66
p4146
I898349472
sV\u896a
p4147
I2
sV\u5ff1
p4148
I2477052
sV\u7701
p4149
I168669122
sV\u5582
p4150
I6791834
sV\u9a88
p4151
I68293
sV\u598a
p4152
I3142424
sV\u5417
p4153
I46321432
sV\u5e1b
p4154
I863372
sV\u8721
p4155
I9975147
sV\u762b
p4156
I8112972
sV\u54ac
p4157
I26139054
sV\u7a33
p4158
I127956968
sV\u81ba
p4159
I1461157
sV\u8bbe
p4160
I1241539156
sV\u5145
p4161
I227114044
sV\u4f51
p4162
I4533387
sV\u9cdc
p4163
I178184
sV\u5bde
p4164
I30429334
sV\u6761
p4165
I441704753
sV\u80e4
p4166
I390164
sV\u4fe6
p4167
I10
sV\u566b
p4168
I1
sV\u956d
p4169
I918981
sV\u73ee
p4170
I1
sV\u9975
p4171
I2174319
sV\u678b
p4172
I1
sV\u4f10
p4173
I17832754
sV\u6b93
p4174
I138355
sV\u8c12
p4175
I441440
sV\u9f9b
p4176
I502359
sV\u6124
p4177
I33309744
sV\u522e
p4178
I6467637
sV\u7eb1
p4179
I23200240
sV\u62b9
p4180
I18476244
sV\u8338
p4181
I4197125
sV\u6cbd
p4182
I2029916
sV\u8d3c
p4183
I18120317
sV\u96c1
p4184
I4158044
sV\u90c5
p4185
I1701841
sV\u5dc7
p4186
I3
sV\u84cd
p4187
I2
sV\u624e
p4188
I35121293
sV\u88d5
p4189
I9914819
sV\u79df
p4190
I120389998
sV\u63e3
p4191
I3740185
sV\u8e66
p4192
I5865376
sV\u97eb
p4193
I4
sV\u54ed
p4194
I47324954
sV\u6d7c
p4195
I2
sV\u89ff
p4196
I1
sV\u7601
p4197
I894097
sV\u9780
p4198
I1
sV\u5482
p4199
I150605
sV\u5e86
p4200
I114939174
sV\u6e11
p4201
I1
sV\u8f90
p4202
I10663650
sV\u7696
p4203
I720876
sV\u5f1b
p4204
I2773197
sV\u591f
p4205
I206521750
sV\u712f
p4206
I1
sV\u92ae
p4207
I167086
sV\u7b33
p4208
I159837
sV\u9cb2
p4209
I285618
sV\u86b6
p4210
I1
sV\u80ba
p4211
I17637672
sV\u693f
p4212
I537129
sV\u5641
p4213
I1
sV\u5a49
p4214
I7785259
sV\u65cc
p4215
I1055666
sV\u7259
p4216
I76898179
sV\u50da
p4217
I4030094
sV\u87e0
p4218
I990950
sV\u8be8
p4219
I147751
sV\u72ee
p4220
I20668079
sV\u5b73
p4221
I324128
sV\u9875
p4222
I619550065
sV\u4f7b
p4223
I528700
sV\u60fa
p4224
I2766231
sV\u7c83
p4225
I1
sV\u5408
p4226
I1215008982
sV\u9a97
p4227
I56197890
sV\u5d99
p4228
I635460
sV\u539d
p4229
I7
sV\u4fa5
p4230
I3254270
sV\u6e24
p4231
I2798228
sV\u6428
p4232
I1
sV\u7bad
p4233
I32414317
sV\u77b5
p4234
I4
sV\u9634
p4235
I90292414
sV\u4f3a
p4236
I9174329
sV\u52c7
p4237
I58080712
sV\u8bcd
p4238
I215328795
sV\u6d4e
p4239
I479572729
sV\u70db
p4240
I9386067
sV\u525c
p4241
I7
sV\u76df
p4242
I138971101
sV\u955e
p4243
I67970
sV\u6ce3
p4244
I14462308
sV\u62e7
p4245
I691519
sV\u9eef
p4246
I7122966
sV\u7070
p4247
I42538527
sV\u94f3
p4248
I37865
sV\u627c
p4249
I3530958
sV\u7901
p4250
I2100657
sV\u9880
p4251
I397268
sV\u7f05
p4252
I4026045
sV\u9488
p4253
I101878870
sV\u7f9a
p4254
I1825448
sV\u561f
p4255
I9509569
sV\u8921
p4256
I86597
sV\u6ba2
p4257
I9
sV\u67aa
p4258
I54408009
sV\u7433
p4259
I8244343
sV\u603b
p4260
I655121541
sV\u5941
p4261
I49010
sV\u7ec4
p4262
I563746433
sV\u5549
p4263
I186199
sV\u6569
p4264
I1
sV\u586b
p4265
I60033173
sV\u9171
p4266
I9270668
sV\u5473
p4267
I186844897
sV\u73f2
p4268
I317425
sV\u837d
p4269
I150842
sV\u5f04
p4270
I52574844
sV\u7387
p4271
I275710328
sV\u9006
p4272
I20028485
sV\u8c0e
p4273
I14658404
sV\u6593
p4274
I1809678
sV\u8212
p4275
I55163897
sV\u919b
p4276
I4389783
sV\u529d
p4277
I18266169
sV\u731c
p4278
I41869233
sV\u6920
p4279
I6
sV\u8da3
p4280
I130752196
sV\u4ea5
p4281
I3129523
sV\u6cb9
p4282
I243035758
sV\u8d38
p4283
I203417906
sV\u4e3a
p4284
L2461859457L
sV\u62bd
p4285
I61425856
sV\u833c
p4286
I155152
sV\u94c9
p4287
I163497
sV\u4fcf
p4288
I10288692
sV\u6252
p4289
I1783599
sV\u5d58
p4290
I726069
sV\u9e5a
p4291
I120751
sV\u535c
p4292
I14027872
sV\u4f64
p4293
I169376
sV\u95f3
p4294
I12
sV\u56f5
p4295
I305564
sV\u8bf7
p4296
I725113129
sV\u6d78
p4297
I13093222
sV\u81fb
p4298
I929963
sV\u7801
p4299
I495176547
sV\u9980
p4300
I6
sV\u9f84
p4301
I62730282
sV\u7409
p4302
I4624822
sV\u6615
p4303
I68410
sV\u5b17
p4304
I278804
sV\u511b
p4305
I1
sV\u7e9a
p4306
I2
sV\u571f
p4307
I179813703
sV\u749e
p4308
I641151
sV\u8821
p4309
I309878
sV\u60a6
p4310
I26525235
sV\u9cae
p4311
I103131
sV\u51b0
p4312
I90720099
sV\u7533
p4313
I156010265
sV\u8eba
p4314
I27223461
sV\u79c0
p4315
I116589589
sV\u5e45
p4316
I84425967
sV\u75c8
p4317
I6
sV\u67d4
p4318
I78571558
sV\u725d
p4319
I7
sV\u6861
p4320
I60683
sV\u8fe4
p4321
I566597
sV\u6469
p4322
I81868068
sV\u9a6d
p4323
I2976245
sV\u72f2
p4324
I228956
sV\u9675
p4325
I12998409
sV\u8c79
p4326
I5698348
sV\u5c04
p4327
I131177919
sV\u5608
p4328
I2243336
sV\u6c8f
p4329
I212660
sV\u9897
p4330
I41025477
sV\u5f99
p4331
I1362672
sV\u949f
p4332
I101181242
sV\u6c24
p4333
I753900
sV\u6628
p4334
I110391476
sV\u75b5
p4335
I2852458
sV\u6fb9
p4336
I5
sV\u50c7
p4337
I5
sV\u85d5
p4338
I939208
sV\u505c
p4339
I173308931
sV\u975e
p4340
I409050521
sV\u60e7
p4341
I27094591
sV\u8366
p4342
I140622
sV\u9aeb
p4343
I47135
sV\u786c
p4344
I144148743
sV\u53f1
p4345
I2654710
sV\u96f3
p4346
I5014470
sV\u82fb
p4347
I183728
sV\u607c
p4348
I30813730
sV\u84ff
p4349
I563225
sV\u9a80
p4350
I2
sV\u5982
p4351
I1403338928
sV\u5386
p4352
I357660494
sV\u7709
p4353
I44222773
sV\u558a
p4354
I37028104
sV\u690d
p4355
I65650239
sV\u6311
p4356
I78631858
sV\u9f19
p4357
I1
sV\u521b
p4358
I462395441
sV\u541f
p4359
I18552931
sV\u8d25
p4360
I102337574
sV\u8729
p4361
I1
sV\u6837
p4362
I870402561
sV\u8bb6
p4363
I21092488
sV\u4eb8
p4364
I2
sV\u8dba
p4365
I95338
sV\u9e43
p4366
I2363441
sV\u9047
p4367
I160561583
sV\u76c8
p4368
I36471448
sV\u62d0
p4369
I7625914
sV\u9ed8
p4370
I120798344
sV\u90dc
p4371
I269025
sV\u8ae0
p4372
I1
sV\u996d
p4373
I113842989
sV\u5c6f
p4374
I2703392
sV\u8f79
p4375
I2
sV\u5d04
p4376
I1
sV\u5708
p4377
I58306816
sV\u6b8b
p4378
I60443536
sV\u9997
p4379
I328981
sV\u5e99
p4380
I12973894
sV\u7f18
p4381
I81679129
sV\u6b20
p4382
I23701445
sV\u8fa3
p4383
I28690416
sV\u6728
p4384
I156459003
sV\u992c
p4385
I1
sV\u5e2e
p4386
I272045173
sV\u5fc3
p4387
I1896803699
sV\u9cc5
p4388
I822923
sV\u51c7
p4389
I198874
sV\u96c9
p4390
I68474
sV\u6e4e
p4391
I393604
sV\u82d1
p4392
I6569388
sV\u6052
p4393
I32498794
sV\u5f58
p4394
I7
sV\u515c
p4395
I5183909
sV\u8862
p4396
I205384
sV\u97f3
p4397
I686863788
sV\u7574
p4398
I4419853
sV\u6f78
p4399
I625484
sV\u85ff
p4400
I401218
sV\u9b80
p4401
I1
sV\u4e8e
p4402
I1409754362
sV\u6211
p4403
L4347113024L
sV\u6415
p4404
I1
sV\u7a96
p4405
I1149427
sV\u901d
p4406
I19570621
sV\u68a2
p4407
I3130820
sV\u7b2b
p4408
I1
sV\u7d2f
p4409
I74100177
sV\u653f
p4410
I814226130
sV\u5c45
p4411
I223883969
sV\u69cc
p4412
I389984
sV\u8d4f
p4413
I93069937
sV\u63d0
p4414
I1071582460
sV\u8753
p4415
I39724
sV\u5ad6
p4416
I3688774
sV\u91dc
p4417
I2083310
sV\u56de
p4418
I1035906790
sV\u6a61
p4419
I19920361
sV\u8be0
p4420
I5201890
sV\u8de4
p4421
I1455087
sV\u5d6f
p4422
I166784
sV\u7eee
p4423
I1421517
sV\u5773
p4424
I347440
sV\u6cfa
p4425
I58273
sV\u66fe
p4426
I140221085
sV\u5a04
p4427
I169728
sV\u7687
p4428
I89382364
sV\u9506
p4429
I430282
sV\u890e
p4430
I4
sV\u8712
p4431
I2108059
sV\u5999
p4432
I61142685
sV\u949b
p4433
I1917101
sV\u86a7
p4434
I80537
sV\u6028
p4435
I32742222
sV\u9e2c
p4436
I120751
sV\u592e
p4437
I132981077
sV\u75b1
p4438
I4874125
sV\u863c
p4439
I184986
sV\u7f42
p4440
I907168
sV\u91c9
p4441
I658503
sV\u8fcd
p4442
I1
sV\u7ed7
p4443
I149032
sV\u5858
p4444
I8989683
sV\u565c
p4445
I5198262
sV\u72df
p4446
I1
sV\u915e
p4447
I59548
sV\u68e3
p4448
I94550
sV\u836a
p4449
I114490
sV\u5fed
p4450
I1
sV\u9aef
p4451
I339297
sV\u7470
p4452
I23998464
sV\u53f5
p4453
I187096
sV\u5f82
p4454
I1
sV\u9a84
p4455
I19651188
sV\u7109
p4456
I2912955
sV\u9088
p4457
I449635
sV\u8490
p4458
I1
sV\u541b
p4459
I32505253
sV\u8d21
p4460
I69917867
sV\u8129
p4461
I3
sV\u63aa
p4462
I85412782
sV\u8bba
p4463
I1188389576
sV\u623f
p4464
I601022650
sV\u9647
p4465
I844640
sV\u5149
p4466
I675231127
sV\u70c8
p4467
I132884935
sV\u4f4d
p4468
I1061324338
sV\u64d0
p4469
I3
sV\u62d4
p4470
I43542165
sV\u98d8
p4471
I53137139
sV\u6d61
p4472
I1
sV\u6b65
p4473
I426254308
sV\u80e8
p4474
I40072
sV\u5899
p4475
I67324212
sV\u7ead
p4476
I1112506
sV\u9f2c
p4477
I37074
sV\u9530
p4478
I951131
sV\u5632
p4479
I12345543
sV\u9ac5
p4480
I5133760
sV\u684e
p4481
I539433
sV\u84d1
p4482
I230598
sV\u6652
p4483
I10759490
sV\u82d5
p4484
I86706
sV\u5958
p4485
I560344
sV\u75db
p4486
I147621906
sV\u8ff7
p4487
I164660377
sV\u85fb
p4488
I3175854
sV\u677c
p4489
I34322
sV\u5486
p4490
I3706919
sV\u6e0d
p4491
I2454276
sV\u6215
p4492
I219760
sV\u5f17
p4493
I12982791
sV\u551b
p4494
I139424
sV\u8c21
p4495
I224503
sV\u6ea2
p4496
I13876584
sV\u64a6
p4497
I2
sV\u7d2b
p4498
I43142965
sV\u5fac
p4499
I1
sV\u7b2f
p4500
I1
sV\u653b
p4501
I161928563
sV\u80be
p4502
I16870606
sV\u5c41
p4503
I21096188
sV\u8d4b
p4504
I17476857
sV\u4e4d
p4505
I6071590
sV\u8153
p4506
I244004
sV\u5ada
p4507
I1
sV\u6c61
p4508
I66552193
sV\u8be4
p4509
I101697
sV\u6069
p4510
I48517236
sV\u9e6d
p4511
I1317336
sV\u5173
p4512
I1724043761
sV\u76f2
p4513
I16047751
sV\u867d
p4514
I205247440
sV\u7a83
p4515
I19867069
sV\u9d02
p4516
I2
sV\u7487
p4517
I1106962
sV\u9706
p4518
I5257554
sV\u5208
p4519
I1
sV\u688f
p4520
I539433
sV\u6293
p4521
I100021919
sV\u5b99
p4522
I17291903
sV\u559d
p4523
I81244295
sV\u6e20
p4524
I33071386
sV\u9034
p4525
I1
sV\u4f36
p4526
I1461746
sV\u65bd
p4527
I342012795
sV\u843c
p4528
I188099
sV\u54c7
p4529
I5412544
sV\u4ecb
p4530
I520294307
sV\u87d1
p4531
I2354624
sV\u7cd7
p4532
I747699
sV\u76db
p4533
I76943747
sV\u545c
p4534
I12697133
sV\u70df
p4535
I105744121
sV\u4e60
p4536
I362593136
sV\u8d62
p4537
I43418049
sV\u7f01
p4538
I73309
sV\u5d82
p4539
I295467
sV\u9884
p4540
I299058664
sV\u5786
p4541
I2
sV\u8c8c
p4542
I46387540
sV\u6115
p4543
I6967550
sV\u7f96
p4544
I1
sV\u561b
p4545
I9332929
sV\u501f
p4546
I82660721
sV\u8925
p4547
I1634316
sV\u5cac
p4548
I48286
sV\u603f
p4549
I1
sV\u5349
p4550
I8462746
sV\u72c8
p4551
I4985732
sV\u8e4b
p4552
I1915671
sV\u6ccc
p4553
I17172321
sV\u5fd6
p4554
I3308671
sV\u9ad8
p4555
I1458499624
sV\u59da
p4556
I666306
sV\u94dc
p4557
I23810050
sV\u88e4
p4558
I33484434
sV\u6369
p4559
I69292
sV\u7bee
p4560
I47477775
sV\u9175
p4561
I5452711
sV\u5f00
p4562
I1774621955
sV\u5904
p4563
I669730414
sV\u9606
p4564
I1
sV\u5308
p4565
I4106605
sV\u900a
p4566
I9536400
sV\u9d97
p4567
I1
sV\u549d
p4568
I360908
sV\u751c
p4569
I44247863
sV\u4ea1
p4570
I82502278
sV\u6f20
p4571
I27293840
sV\u8ba3
p4572
I192582
sV\u6924
p4573
I177639
sV\u6328
p4574
I9397795
sV\u76b1
p4575
I23324671
sV\u9730
p4576
I254710
sV\u5432
p4577
I144047
sV\u853c
p4578
I2316887
sV\u6452
p4579
I1540751
sV\u5b58
p4580
I445986529
sV\u77db
p4581
I31590644
sV\u555c
p4582
I1106945
sV\u4f60
p4583
I2114412926
sV\u8c62
p4584
I266620
sV\u65e7
p4585
I78870383
sV\u806a
p4586
I33159557
sV\u5ced
p4587
I2977990
sV\u56f1
p4588
I1754426
sV\u50f5
p4589
I13881772
sV\u8df7
p4590
I2168065
sV\u5c82
p4591
I16995207
sV\u9984
p4592
I811398
sV\u6015
p4593
I154855450
sV\u8e21
p4594
I1
sV\u7f2b
p4595
I152391
sV\u613f
p4596
I170202295
sV\u82be
p4597
I177148
sV\u9b43
p4598
I1
sV\u9547
p4599
I88467362
sV\u5249
p4600
I2
sV\u73c8
p4601
I1932658
sV\u6dcc
p4602
I4091024
sV\u67d0
p4603
I125650732
sV\u5ed6
p4604
I298847
sV\u6865
p4605
I63036679
sV\u6269
p4606
I88816012
sV\u5f6b
p4607
I7
sV\u5373
p4608
I319363932
sV\u9075
p4609
I48254458
sV\u8a79
p4610
I1447973
sV\u68fa
p4611
I3712373
sV\u62fe
p4612
I22710078
sV\u6000
p4613
I131444564
sV\u568f
p4614
I1629456
sV\u9991
p4615
I127502
sV\u8116
p4616
I13872331
sV\u6599
p4617
I606784282
sV\u871a
p4618
I892717
sV\u8d1e
p4619
I9593939
sV\u77a5
p4620
I5099535
sV\u5624
p4621
I918072
sV\u5c28
p4622
I2
sV\u9f2a
p4623
I2
sV\u86af
p4624
I1075674
sV\u6b32
p4625
I70666777
sV\u4fb5
p4626
I86193622
sV\u7136
p4627
I1340825292
sV\u55b9
p4628
I178300
sV\u773a
p4629
I3204536
sV\u5bbd
p4630
I108429997
sV\u76cf
p4631
I1927209
sV\u6458
p4632
I46326404
sV\u8bdd
p4633
I1117993715
sV\u4edf
p4634
I174696
sV\u63ed
p4635
I45950063
sV\u9176
p4636
I2802064
sV\u75f9
p4637
I3534261
sV\u5478
p4638
I830363
sV\u8403
p4639
I6385385
sV\u6382
p4640
I1089508
sV\u8a07
p4641
I145892
sV\u6986
p4642
I986010
sV\u900b
p4643
I35664
sV\u530d
p4644
I836678
sV\u5f15
p4645
I413896267
sV\u6e1f
p4646
I7
sV\u53a2
p4647
I12718926
sV\u9ca8
p4648
I3637651
sV\u5faa
p4649
I38342138
sV\u832d
p4650
I196277
sV\u62ac
p4651
I32602565
sV\u8931
p4652
I2
sV\u68b0
p4653
I132457737
sV\u6eb4
p4654
I228955
sV\u5237
p4655
I77597766
sV\u9539
p4656
I436159
sV\u6745
p4657
I1
sV\u89c6
p4658
I666284898
sV\u6d49
p4659
I1
sV\u734d
p4660
I1
sV\u7f55
p4661
I9195681
sV\u67da
p4662
I1421632
sV\u6dde
p4663
I235484
sV\u79e6
p4664
I16852897
sV\u5d69
p4665
I1295425
sV\u606b
p4666
I311539
sV\u666f
p4667
I234878289
sV\u51f6
p4668
I30228921
sV\u94f8
p4669
I13100298
sV\u57fa
p4670
I662363469
sV\u5dfe
p4671
I19585748
sV\u6100
p4672
I59209
sV\u8c89
p4673
I206525
sV\u9891
p4674
I313127056
sV\u9e95
p4675
I2
sV\u7f14
p4676
I6881472
sV\u6499
p4677
I1
sV\u8c1e
p4678
I1
sV\u9e2a
p4679
I607257
sV\u87af
p4680
I2
sV\u8db3
p4681
I315605586
sV\u4eb5
p4682
I3608001
sV\u65c3
p4683
I1
sV\u8d48
p4684
I662388
sV\u71cb
p4685
I3
sV\u9950
p4686
I1
sV\u6b5c
p4687
I1
sV\u4fdf
p4688
I6
sV\u90e1
p4689
I2697795
sV\u55e3
p4690
I828325
sV\u62ed
p4691
I5595233
sV\u68f1
p4692
I2394552
sV\u5578
p4693
I13279497
sV\u7afd
p4694
I1
sV\u6282
p4695
I1
sV\u8b07
p4696
I81256
sV\u6886
p4697
I793490
sV\u520d
p4698
I405794
sV\u970f
p4699
I1495208
sV\u748e
p4700
I334960
sV\u5811
p4701
I377158
sV\u7a92
p4702
I4454647
sV\u5e15
p4703
I15050074
sV\u63ac
p4704
I851848
sV\u8e35
p4705
I1766821
sV\u75b8
p4706
I580648
sV\u88c6
p4707
I904856
sV\u6c49
p4708
I187687256
sV\u724d
p4709
I231670
sV\u53cc
p4710
I281049696
sV\u94ce
p4711
I272706
sV\u59d0
p4712
I172315465
sV\u6cde
p4713
I1185662
sV\u9563
p4714
I462572
sV\u5c69
p4715
I3
sV\u7eea
p4716
I44819860
sV\u676f
p4717
I82536288
sV\u8ff4
p4718
I1
sV\u95f8
p4719
I4938753
sV\u56fa
p4720
I104661928
sV\u8f89
p4721
I31852683
sV\u918d
p4722
I337608
sV\u548f
p4723
I2221583
sV\u5e93
p4724
I199549119
sV\u851a
p4725
I6426015
sV\u5220
p4726
I85878017
sV\u75a5
p4727
I141191
sV\u82ab
p4728
I150842
sV\u8e48
p4729
I15022425
sV\u574e
p4730
I5314488
sV\u7ed3
p4731
I693285396
sV\u876e
p4732
I128889
sV\u79fd
p4733
I8688300
sV\u6b86
p4734
I2022720
sV\u4f09
p4735
I326997
sV\u778e
p4736
I6886761
sV\u5d15
p4737
I1
sV\u889c
p4738
I11483358
sV\u6c1f
p4739
I3437833
sV\u51a2
p4740
I258601
sV\u7827
p4741
I731613
sV\u5ba6
p4742
I1122039
sV\u60ac
p4743
I31664139
sV\u8d35
p4744
I130472592
sV\u9739
p4745
I5107687
sV\u993d
p4746
I1
sV\u5c3f
p4747
I46019449
sV\u81c2
p4748
I27133901
sV\u6545
p4749
I267757451
sV\u8bc6
p4750
I404876890
sV\u7b51
p4751
I155993092
sV\u63d6
p4752
I1555813
sV\u5361
p4753
I234537240
sV\u5565
p4754
I9901879
sV\u7be6
p4755
I42000
sV\u5f69
p4756
I320839130
sV\u626b
p4757
I53001549
sV\u53f6
p4758
I75773546
sV\u5ffe
p4759
I321526
sV\u538b
p4760
I311424105
sV\u558f
p4761
I3
sV\u9a91
p4762
I58159459
sV\u8e1e
p4763
I1422922
sV\u5320
p4764
I8382158
sV\u9022
p4765
I16857902
sV\u5524
p4766
I28576511
sV\u7ea9
p4767
I1
sV\u83ab
p4768
I55998494
sV\u85af
p4769
I6358025
sV\u7236
p4770
I147356228
sV\u8340
p4771
I373271
sV\u914c
p4772
I3069689
sV\u564e
p4773
I1003514
sV\u86d9
p4774
I7703503
sV\u7360
p4775
I838352
sV\u9ee9
p4776
I103052
sV\u60ed
p4777
I5014951
sV\u866e
p4778
I3
sV\u8872
p4779
I754854
sV\u6cf5
p4780
I17345970
sV\u76f9
p4781
I548777
sV\u8703
p4782
I841468
sV\u4e09
p4783
I956098691
sV\u500d
p4784
I38519607
sV\u950f
p4785
I1029618
sV\u768e
p4786
I1343652
sV\u5a11
p4787
I1136580
sV\u9f13
p4788
I70706095
sV\u61ac
p4789
I3802081
sV\u8c35
p4790
I50475
sV\u6241
p4791
I13613791
sV\u6445
p4792
I1
sV\u51cc
p4793
I30077931
sV\u96ce
p4794
I140402
sV\u7a51
p4795
I75996
sV\u5bd0
p4796
I2458790
sV\u98d2
p4797
I1346721
sV\u62d6
p4798
I38801467
sV\u6ede
p4799
I12193876
sV\u9967
p4800
I2
sV\u7ae6
p4801
I3
sV\u81ec
p4802
I79574
sV\u8bf0
p4803
I72172
sV\u54fa
p4804
I3825332
sV\u6400
p4805
I2041995
sV\u8385
p4806
I1254762
sV\u6808
p4807
I7440138
sV\u548b
p4808
I3262001
sV\u978d
p4809
I7809851
sV\u760c
p4810
I44611
sV\u5893
p4811
I15820066
sV\u7a14
p4812
I380744
sV\u4e1c
p4813
I716208682
sV\u75a1
p4814
I6087154
sV\u5420
p4815
I910042
sV\u5224
p4816
I104132107
sV\u82af
p4817
I36979340
sV\u5fbd
p4818
I33628515
sV\u793e
p4819
I702521634
sV\u8244
p4820
I120150
sV\u6ec7
p4821
I830725
sV\u964c
p4822
I24405173
sV\u5f52
p4823
I94356214
sV\u8fdd
p4824
I97827827
sV\u816e
p4825
I1732332
sV\u6df1
p4826
I480098776
sV\u8f72
p4827
I72261
sV\u9576
p4828
I4358614
sV\u5e7c
p4829
I53304951
sV\u8003
p4830
I613770301
sV\u6b8a
p4831
I64548801
sV\u8098
p4832
I2545953
sV\u6c1b
p4833
I31811637
sV\u6a1f
p4834
I1804186
sV\u94a0
p4835
I3309947
sV\u7023
p4836
I108861
sV\u57a2
p4837
I3129728
sV\u5baa
p4838
I16700316
sV\u8d31
p4839
I6323690
sV\u70b8
p4840
I52261843
sV\u5c3b
p4841
I3
sV\u6345
p4842
I366266
sV\u8dc6
p4843
I1981984
sV\u8bca
p4844
I44050516
sV\u774d
p4845
I2
sV\u91ce
p4846
I95099355
sV\u5ad4
p4847
I531940
sV\u65d6
p4848
I821282
sV\u4f5d
p4849
I620542
sV\u8a5f
p4850
I2
sV\u5561
p4851
I31355449
sV\u9063
p4852
I9932441
sV\u77e2
p4853
I7189808
sV\u9e67
p4854
I607257
sV\u7bea
p4855
I4
sV\u626f
p4856
I15555929
sV\u90f8
p4857
I3891467
sV\u7c7b
p4858
I731584095
sV\u9efc
p4859
I7
sV\u7a7f
p4860
I109531628
sV\u6500
p4861
I13633643
sV\u558b
p4862
I2487034
sV\u968d
p4863
I786120
sV\u9c91
p4864
I413697
sV\u5993
p4865
I9786178
sV\u7b14
p4866
I172330606
sV\u5520
p4867
I3557014
sV\u6e32
p4868
I4849863
sV\u7436
p4869
I3293745
sV\u783e
p4870
I1179128
sV\u504e
p4871
I2348013
sV\u9b54
p4872
I189513279
sV\u80d9
p4873
I2
sV\u6f5c
p4874
I64992208
sV\u94e1
p4875
I114598
sV\u5fe7
p4876
I59114425
sV\u7968
p4877
I296951781
sV\u6cf1
p4878
I895084
sV\u8e72
p4879
I5321993
sV\u70f9
p4880
I5809844
sV\u5178
p4881
I213398239
sV\u7efd
p4882
I8473246
sV\u5f7c
p4883
I34133786
sV\u987e
p4884
I151932197
sV\u6682
p4885
I144224563
sV\u6c86
p4886
I108859
sV\u950b
p4887
I52889157
sV\u708e
p4888
I69575115
sV\u5c11
p4889
I596277018
sV\u6717
p4890
I50531187
sV\u8198
p4891
I73294
sV\u6d1b
p4892
I41525416
sV\u8f9c
p4893
I10948973
sV\u7f27
p4894
I2
sV\u99a8
p4895
I21792298
sV\u8c31
p4896
I28650767
sV\u6bb4
p4897
I5262875
sV\u9e3d
p4898
I7559779
sV\u7fbc
p4899
I1
sV\u6849
p4900
I192539
sV\u90ce
p4901
I34727373
sV\u8757
p4902
I1387329
sV\u8d5b
p4903
I337087922
sV\u62da
p4904
I2083627
sV\u4e5d
p4905
I134763200
sV\u9163
p4906
I1392671
sV\u5265
p4907
I11675813
sV\u9f67
p4908
I5
sV\u4ef2
p4909
I12442356
sV\u8bf4
p4910
I1736237033
sV\u52fa
p4911
I2147769
sV\u6004
p4912
I187072
sV\u7814
p4913
I473840631
sV\u811a
p4914
I129603345
sV\u6d9d
p4915
I1048871
sV\u9522
p4916
I1472255
sV\u7ba9
p4917
I716315
sV\u80af
p4918
I96092357
sV\u6d32
p4919
I128941132
sV\u7736
p4920
I5576617
sV\u9ebb
p4921
I97560914
sV\u98bf
p4922
I1
sV\u4f46
p4923
I450581750
sV\u8a48
p4924
I6
sV\u534e
p4925
I739398639
sV\u6258
p4926
I125284173
sV\u8ddd
p4927
I77447567
sV\u6c5c
p4928
I2
sV\u97e1
p4929
I1
sV\u65ed
p4930
I2583995
sV\u4e70
p4931
I261553994
sV\u9776
p4932
I1482578
sV\u5278
p4933
I2
sV\u8c07
p4934
I2
sV\u960b
p4935
I62794
sV\u900f
p4936
I128098497
sV\u5f11
p4937
I269196
sV\u5915
p4938
I20055325
sV\u8298
p4939
I38265
sV\u7c27
p4940
I5572644
sV\u9aa8
p4941
I86369410
sV\u59aa
p4942
I496527
sV\u64ac
p4943
I1200562
sV\u8935
p4944
I1
sV\u5437
p4945
I2
sV\u72b8
p4946
I317785
sV\u7cbc
p4947
I774140
sV\u6b49
p4948
I26807436
sV\u89ca
p4949
I1143936
sV\u54cc
p4950
I65480
sV\u7f51
p4951
L2161668300L
sV\u7955
p4952
I1
sV\u8457
p4953
I165691952
sV\u5761
p4954
I29155906
sV\u75e2
p4955
I755312
sV\u5165
p4956
I1109642511
sV\u7fe6
p4957
I5
sV\u5b69
p4958
I317059549
sV\u84ec
p4959
I8003037
sV\u606f
p4960
I1263858344
sV\u88f4
p4961
I626653
sV\u57f6
p4962
I3
sV\u51fa
p4963
L2572891754L
sV\u8681
p4964
I11742821
sV\u6700
p4965
I1529002805
sV\u8a89
p4966
I64902086
sV\u578b
p4967
I541075631
sV\u7f10
p4968
I1
sV\u8616
p4969
I184943
sV\u9e26
p4970
I9607068
sV\u87ab
p4971
I6
sV\u622e
p4972
I3595110
sV\u8bb3
p4973
I4773928
sV\u6c32
p4974
I753900
sV\u7a3e
p4975
I2
sV\u6dc7
p4976
I3343673
sV\u954c
p4977
I583289
sV\u9f50
p4978
I79893077
sV\u7bd3
p4979
I478144
sV\u9954
p4980
I6
sV\u4fdb
p4981
I4
sV\u6d5c
p4982
I819162
sV\u53e3
p4983
I761834977
sV\u7164
p4984
I42716011
sV\u5de7
p4985
I102893662
sV\u4f70
p4986
I462111
sV\u68f5
p4987
I10420700
sV\u9676
p4988
I28471259
sV\u5378
p4989
I15094560
sV\u9a7e
p4990
I53736000
sV\u8303
p4991
I280388580
sV\u6482
p4992
I745883
sV\u540d
p4993
I1372569439
sV\u9b13
p4994
I1448099
sV\u7c92
p4995
I24052129
sV\u5815
p4996
I9073079
sV\u8398
p4997
I1347710
sV\u691f
p4998
I7
sV\u97a0
p4999
I2679828
sV\u7d27
p5000
I235203515
sV\u5ea6
p5001
I972448279
sV\u8e31
p5002
I1890124
sV\u69b4
p5003
I4723379
sV\u5537
p5004
I322852
sV\u5fd0
p5005
I2306499
sV\u7855
p5006
I48387722
sV\u59d4
p5007
I363386812
sV\u60da
p5008
I3919954
sV\u895f
p5009
I4429007
sV\u74e2
p5010
I887689
sV\u5065
p5011
I238381643
sV\u7ee6
p5012
I88454
sV\u8ff0
p5013
I166306734
sV\u93f8
p5014
I34710
sV\u8981
p5015
L2620747790L
sV\u6800
p5016
I1059702
sV\u8f85
p5017
I57260746
sV\u5e8f
p5018
I266922481
sV\u5428
p5019
I17992113
sV\u88ab
p5020
I170729064
sV\u8eaf
p5021
I14965937
sV\u6332
p5022
I716610
sV\u9ab7
p5023
I5094679
sV\u90bb
p5024
I28236577
sV\u7f3a
p5025
I124990318
sV\u753e
p5026
I103357
sV\u8840
p5027
I240348347
sV\u8e44
p5028
I6391429
sV\u62c7
p5029
I4660655
sV\u78cb
p5030
I4636868
sV\u7ecf
p5031
I2065200369
sV\u9050
p5032
I3083247
sV\u5352
p5033
I3445516
sV\u5ce3
p5034
I2
sV\u95e9
p5035
I267845
sV\u9976
p5036
I9130776
sV\u8c03
p5037
I548271818
sV\u6a17
p5038
I1
sV\u601b
p5039
I3
sV\u829c
p5040
I5716323
sV\u661f
p5041
I484448795
sV\u98a0
p5042
I11627703
sV\u5ba2
p5043
I581630846
sV\u94a8
p5044
I793571
sV\u8b2d
p5045
I1
sV\u6aac
p5046
I6188484
sV\u8131
p5047
I108708038
sV\u66b4
p5048
I109867900
sV\u563f
p5049
I60981835
sV\u8bc2
p5050
I143103
sV\u4ec4
p5051
I381801
sV\u81c6
p5052
I1318366
sV\u6549
p5053
I41377
sV\u87ca
p5054
I109433
sV\u5acc
p5055
I30015805
sV\u56d4
p5056
I1708409
sV\u686b
p5057
I177639
sV\u80f0
p5058
I3189360
sV\u86f4
p5059
I1
sV\u7a77
p5060
I28516451
sV\u5ffa
p5061
I1
sV\u8881
p5062
I2824160
sV\u8e85
p5063
I214114
sV\u9a8d
p5064
I2
sV\u9091
p5065
I883844
sV\u8816
p5066
I9
sV\u6c99
p5067
I118989075
sV\u7ea5
p5068
I156631
sV\u9026
p5069
I224488
sV\u74a9
p5070
I343973
sV\u962a
p5071
I1787196
sV\u6c2e
p5072
I2333690
sV\u97bf
p5073
I1
sV\u79cb
p5074
I70814920
sV\u5c4e
p5075
I2557930
sV\u9150
p5076
I367049
sV\u98e1
p5077
I8
sV\u7960
p5078
I2578571
sV\u9ee5
p5079
I2
sV\u94e9
p5080
I5
sV\u8272
p5081
I793416485
sV\u9876
p5082
I176383761
sV\u7292
p5083
I549096
sV\u4e9a
p5084
I225471661
sV\u671f
p5085
I998502043
sV\u7327
p5086
I1
sV\u4f2f
p5087
I39692469
sV\u61b0
p5088
I1
sV\u5b37
p5089
I1787627
sV\u6841
p5090
I184539
sV\u4fc4
p5091
I40896428
sV\u80c6
p5092
I47529635
sV\u86ca
p5093
I1526822
sV\u5bcc
p5094
I215014129
sV\u57d4
p5095
I1996695
sV\u6eda
p5096
I59389681
sV\u875f
p5097
I1
sV\u64de
p5098
I842207
sV\u70e6
p5099
I69461204
sV\u696b
p5100
I129110
sV\u8bec
p5101
I1742025
sV\u7b77
p5102
I5203790
sV\u58f6
p5103
I6784719
sV\u5efa
p5104
I1034506340
sV\u777f
p5105
I1877629
sV\u8d85
p5106
I370723690
sV\u998d
p5107
I464933
sV\u780c
p5108
I4209381
sV\u5693
p5109
I1788840
sV\u4e18
p5110
I7228312
sV\u619d
p5111
I1
sV\u7ba1
p5112
I1320607583
sV\u5a20
p5113
I3142424
sV\u5c24
p5114
I71898356
sV\u77a9
p5115
I5705514
sV\u51bd
p5116
I1399964
sV\u94bf
p5117
I1
sV\u8a40
p5118
I2
sV\u7acb
p5119
I609517912
sV\u8fd9
p5120
L3141624425L
sV\u6e58
p5121
I8923913
sV\u7a60
p5122
I1
sV\u50e7
p5123
I9010033
sV\u97e9
p5124
I123184732
sV\u8f6e
p5125
I99291496
sV\u5e78
p5126
I148085946
sV\u6982
p5127
I117381117
sV\u590d
p5128
I571941862
sV\u7f8e
p5129
I1104912237
sV\u6817
p5130
I5855319
sV\u621b
p5131
I2201464
sV\u9aa0
p5132
I490896
sV\u9ca4
p5133
I2132340
sV\u53a6
p5134
I65897543
sV\u96a8
p5135
I1
sV\u8331
p5136
I1046469
sV\u9f39
p5137
I374427
sV\u7eb8
p5138
I109972526
sV\u523b
p5139
I216342535
sV\u70bc
p5140
I47642078
sV\u89c2
p5141
I454571816
sV\u6d45
p5142
I30511823
sV\u6749
p5143
I7964029
sV\u54d4
p5144
I45941
sV\u8857
p5145
I121130892
sV\u6bd6
p5146
I76460
sV\u4f59
p5147
I102813279
sV\u67de
p5148
I151281
sV\u9e63
p5149
I1
sV\u5769
p5150
I186250
sV\u75ea
p5151
I2999880
sV\u4fee
p5152
I352918673
sV\u4f83
p5153
I4588197
sV\u8c85
p5154
I257013
sV\u6d04
p5155
I2
sV\u6708
p5156
I433710410
sV\u5b8b
p5157
I19917092
sV\u988d
p5158
I157559
sV\u5793
p5159
I1
sV\u9495
p5160
I231514
sV\u4f18
p5161
I370253241
sV\u8c1a
p5162
I1337029
sV\u7ca5
p5163
I4685734
sV\u5d24
p5164
I1
sV\u5728
p5165
L2913617831L
sV\u8bab
p5166
I202703
sV\u87b3
p5167
I899829
sV\u5eb9
p5168
I108357
sV\u763e
p5169
I6901056
sV\u8d44
p5170
I1408590573
sV\u8748
p5171
I803642
sV\u6f58
p5172
I3882475
sV\u80dd
p5173
I4
sV\u7b60
p5174
I275083
sV\u96e9
p5175
I1
sV\u7768
p5176
I1181291
sV\u62f1
p5177
I5369130
sV\u9a76
p5178
I42636368
sV\u70fd
p5179
I3190256
sV\u517c
p5180
I48673219
sV\u5211
p5181
I56538347
sV\u9713
p5182
I3625540
sV\u7092
p5183
I18114314
sV\u5415
p5184
I4883644
sV\u8f98
p5185
I568574
sV\u631b
p5186
I6309894
sV\u819c
p5187
I34438866
sV\u7f23
p5188
I5
sV\u54aa
p5189
I10564798
sV\u8231
p5190
I7436873
sV\u63b0
p5191
I753876
sV\u5937
p5192
I7829664
sV\u9e39
p5193
I50467
sV\u7fb8
p5194
I215954
sV\u533b
p5195
I400215942
sV\u88c2
p5196
I39631257
sV\u84ca
p5197
I105262
sV\u9ece
p5198
I24539442
sV\u7455
p5199
I4343793
sV\u55d4
p5200
I2226097
sV\u4e59
p5201
I31789504
sV\u835b
p5202
I3
sV\u5c65
p5203
I22171028
sV\u5669
p5204
I5719746
sV\u6773
p5205
I612659
sV\u7977
p5206
I9685923
sV\u757f
p5207
I361370
sV\u56fe
p5208
I842007052
sV\u8d81
p5209
I11868836
sV\u7410
p5210
I7853895
sV\u679d
p5211
I18828189
sV\u9526
p5212
I32313094
sV\u5028
p5213
I322504
sV\u4fad
p5214
I2
sV\u59b9
p5215
I111407952
sV\u94bb
p5216
I32586475
sV\u7b3a
p5217
I914936
sV\u9e4c
p5218
I536847
sV\u594e
p5219
I1004547
sV\u4ed7
p5220
I11503738
sV\u65f1
p5221
I7218301
sV\u77fd
p5222
I626748
sV\u567c
p5223
I588974
sV\u917e
p5224
I2
sV\u638a
p5225
I2
sV\u5511
p5226
I3819650
sV\u7792
p5227
I10437307
sV\u5315
p5228
I4146111
sV\u6e17
p5229
I14298931
sV\u869c
p5230
I331866
sV\u621f
p5231
I299501
sV\u9ca0
p5232
I8
sV\u7823
p5233
I139569
sV\u9aa4
p5234
I24228587
sV\u64b0
p5235
I9535762
sV\u8335
p5236
I3562702
sV\u5e37
p5237
I4210820
sV\u543b
p5238
I27547088
sV\u523f
p5239
I11
sV\u6d41
p5240
I693333395
sV\u8fc2
p5241
I1668917
sV\u83ca
p5242
I6728254
sV\u7f4d
p5243
I1
sV\u54d0
p5244
I147607
sV\u6dd6
p5245
I582340
sV\u845b
p5246
I10459343
sV\u5b65
p5247
I37962
sV\u73ea
p5248
I7
sV\u6073
p5249
I8235519
sV\u82f4
p5250
I2
sV\u5bfa
p5251
I15897227
sV\u8089
p5252
I93195244
sV\u6108
p5253
I36434046
sV\u5b8f
p5254
I35325378
sV\u5193
p5255
I1
sV\u8c16
p5256
I1
sV\u8a1a
p5257
I2
sV\u669d
p5258
I2
sV\u9e22
p5259
I372017
sV\u7aa5
p5260
I8165952
sV\u4ead
p5261
I8760712
sV\u8baf
p5262
I203106132
sV\u81b3
p5263
I3917698
sV\u8d40
p5264
I1
sV\u69c3
p5265
I13
sV\u8148
p5266
I633853
sV\u9550
p5267
I58770
sV\u4fd7
p5268
I46481531
sV\u88d9
p5269
I17277340
sV\u675c
p5270
I15082611
sV\u59e3
p5271
I837362
sV\u7168
p5272
I2
sV\u4f6c
p5273
I1231098
sV\u886e
p5274
I488912
sV\u5978
p5275
I23693661
sV\u9a7a
p5276
I1
sV\u577c
p5277
I4
sV\u8707
p5278
I233246
sV\u628a
p5279
I378948543
sV\u788e
p5280
I46557009
sV\u5411
p5281
I485326853
sV\u631f
p5282
I3098335
sV\u91a8
p5283
I5
sV\u52aa
p5284
I103079077
sV\u8431
p5285
I1229586
sV\u65b0
p5286
I1991622406
sV\u8235
p5287
I2318626
sV\u63b4
p5288
I112552
sV\u963d
p5289
I1
sV\u533f
p5290
I15255194
sV\u6c41
p5291
I13922124
sV\u5fcc
p5292
I22969913
sV\u98ce
p5293
I666862054
sV\u53d4
p5294
I28508526
sV\u835f
p5295
I4351215
sV\u5c61
p5296
I8722293
sV\u7ee2
p5297
I1174235
sV\u74e6
p5298
I24284573
sV\u8389
p5299
I15185328
sV\u6208
p5300
I8382840
sV\u5e8b
p5301
I1
sV\u7c0c
p5302
I1682182
sV\u9791
p5303
I516508
sV\u5293
p5304
I2
sV\u891a
p5305
I2
sV\u659d
p5306
I3
sV\u831e
p5307
I1
sV\u7fa1
p5308
I13701269
sV\u5824
p5309
I4514218
sV\u73a9
p5310
I206856823
sV\u5228
p5311
I1158558
sV\u8eab
p5312
I970495282
sV\u82b3
p5313
I20511841
sV\u7f36
p5314
I3
sV\u5bb9
p5315
I917810938
sV\u793a
p5316
I633130760
sV\u55bd
p5317
I554943
sV\u733e
p5318
I3537970
sV\u8e40
p5319
I1
sV\u9650
p5320
I1026016252
sV\u8bd9
p5321
I1211260
sV\u6a58
p5322
I4999942
sV\u5ae3
p5323
I2828571
sV\u54e7
p5324
I2420863
sV\u67f1
p5325
I26751930
sV\u61f5
p5326
I2406427
sV\u997a
p5327
I5109432
sV\u547c
p5328
I137324015
sV\u4f01
p5329
I784754951
sV\u6d82
p5330
I44866425
sV\u7b8e
p5331
I1
sV\u849c
p5332
I4379973
sV\u7a23
p5333
I4124170
sV\u98a4
p5334
I20107663
sV\u57a6
p5335
I2774777
sV\u4e2b
p5336
I22541934
sV\u8d2d
p5337
I402118129
sV\u8731
p5338
I37621
sV\u60b4
p5339
I3870933
sV\u563b
p5340
I29141814
sV\u4ec0
p5341
I1007276467
sV\u8dc2
p5342
I3
sV\u87c6
p5343
I1767684
sV\u6349
p5344
I19262522
sV\u81ca
p5345
I432648
sV\u7751
p5346
I1140297
sV\u5965
p5347
I106098673
sV\u86f0
p5348
I995945
sV\u6273
p5349
I4081266
sV\u80f4
p5350
I1266117
sV\u767b
p5351
I365807977
sV\u94fc
p5352
I92649
sV\u707f
p5353
I15050467
sV\u8e81
p5354
I12531769
sV\u8885
p5355
I2872115
sV\u6308
p5356
I9
sV\u5f8b
p5357
I355437946
sV\u9c8d
p5358
I3987758
sV\u7710
p5359
I1
sV\u5393
p5360
I1
sV\u9095
p5361
I244833
sV\u8e16
p5362
I1
sV\u821e
p5363
I123165953
sV\u7ea1
p5364
I12
sV\u5f20
p5365
I293479921
sV\u5924
p5366
I1
sV\u8fab
p5367
I2138594
sV\u783a
p5368
I892697
sV\u54bd
p5369
I13809869
sV\u8944
p5370
I932270
sV\u84dd
p5371
I92518138
sV\u9ee1
p5372
I1
sV\u7af9
p5373
I56807541
sV\u987a
p5374
I130859433
sV\u557c
p5375
I3627640
sV\u4e01
p5376
I75372471
sV\u6c82
p5377
I4923403
sV\u9f0b
p5378
I1
sV\u6d17
p5379
I104226134
sV\u671b
p5380
I571740669
sV\u859c
p5381
I77030
sV\u611f
p5382
I826411932
sV\u4f2b
p5383
I1470528
sV\u8c2d
p5384
I1640646
sV\u7bb8
p5385
I8
sV\u75bc
p5386
I34346532
sV\u513f
p5387
I424550258
sV\u6845
p5388
I480336
sV\u86c6
p5389
I168159
sV\u6249
p5390
I2423194
sV\u7c4d
p5391
I47362302
sV\u68da
p5392
I7404233
sV\u5e61
p5393
I274483
sV\u5269
p5394
I53078502
sV\u8dec
p5395
I3
sV\u696f
p5396
I1
sV\u81f4
p5397
I226027894
sV\u5ef6
p5398
I72081067
sV\u52fe
p5399
I17056800
sV\u9785
p5400
I237917
sV\u620c
p5401
I2422829
sV\u8f95
p5402
I6954556
sV\u6e14
p5403
I16480361
sV\u7599
p5404
I3331248
sV\u7b9d
p5405
I202920
sV\u5a1c
p5406
I19152864
sV\u67a5
p5407
I1
sV\u6da9
p5408
I12147518
sV\u9cb3
p5409
I99851
sV\u5fb5
p5410
I2979468
sV\u82b7
p5411
I835412
sV\u673a
p5412
I2039469404
sV\u6d3e
p5413
I210296487
sV\u9644
p5414
I159589509
sV\u60cb
p5415
I2486025
sV\u5f4a
p5416
I2
sV\u6cd3
p5417
I2
sV\u81e1
p5418
I1
sV\u6060
p5419
I1
sV\u87e5
p5420
I107741
sV\u6664
p5421
I3028746
sV\u6c68
p5422
I218774
sV\u73ed
p5423
I197610237
sV\u5e74
p5424
I1500716877
sV\u6bfd
p5425
I289424
sV\u800b
p5426
I165859
sV\u7f8a
p5427
I44856546
sV\u8c13
p5428
I76519470
sV\u6b92
p5429
I304076
sV\u9a9c
p5430
I768601
sV\u80a0
p5431
I25685165
sV\u86a4
p5432
I1518249
sV\u4faa
p5433
I241772
sV\u72ac
p5434
I9898711
sV\u78b0
p5435
I44387679
sV\u634d
p5436
I2328912
sV\u8bd2
p5437
I1
sV\u4ed4
p5438
I57955571
sV\u5b5d
p5439
I8652643
sV\u8463
p5440
I46915281
sV\u706b
p5441
I348662287
sV\u7c73
p5442
I185273615
sV\u6e7f
p5443
I57071405
sV\u5583
p5444
I17382145
sV\u9685
p5445
I978947
sV\u7704
p5446
I2
sV\u5b87
p5447
I37065605
sV\u828d
p5448
I945728
sV\u6f14
p5449
I322863824
sV\u9016
p5450
I2
sV\u7a9d
p5451
I16699672
sV\u8222
p5452
I188555
sV\u6ca9
p5453
I49733
sV\u8e2a
p5454
I48743300
sV\u52ad
p5455
I41885
sV\u5eb5
p5456
I605220
sV\u83b7
p5457
I232764395
sV\u5242
p5458
I65782632
sV\u7bc7
p5459
I103210817
sV\u67cf
p5460
I14379706
sV\u53d7
p5461
I540691320
sV\u80e1
p5462
I49633818
sV\u72ed
p5463
I10633245
sV\u536c
p5464
I3
sV\u7ef5
p5465
I25781185
sV\u867a
p5466
I4
sV\u9503
p5467
I250844
sV\u5c09
p5468
I10034945
sV\u4e15
p5469
I366544
sV\u569a
p5470
I1
sV\u7f1f
p5471
I70909
sV\u6b27
p5472
I138056186
sV\u9e35
p5473
I826225
sV\u51c0
p5474
I81522942
sV\u624d
p5475
I554631439
sV\u6851
p5476
I22495632
sV\u62e2
p5477
I6806687
sV\u54ee
p5478
I9342043
sV\u6377
p5479
I64461564
sV\u9f89
p5480
I117524
sV\u6c14
p5481
I749078756
sV\u5618
p5482
I3470687
sV\u951a
p5483
I1172656
sV\u63a1
p5484
I1
sV\u65a5
p5485
I17128083
sV\u8d2a
p5486
I21992389
sV\u94af
p5487
I84240
sV\u7932
p5488
I3
sV\u6f3e
p5489
I3462828
sV\u9e48
p5490
I68261
sV\u804c
p5491
I438712023
sV\u6ed3
p5492
I353372
sV\u83e1
p5493
I116658
sV\u8fe9
p5494
I647440
sV\u506c
p5495
I1
sV\u7bf1
p5496
I1534374
sV\u9972
p5497
I19819573
sV\u69fd
p5498
I11793860
sV\u8f7e
p5499
I54847
sV\u5505
p5500
I1
sV\u840f
p5501
I116659
sV\u9698
p5502
I1982207
sV\u989c
p5503
I82779016
sV\u7c1f
p5504
I1
sV\u522b
p5505
I881631348
sV\u70ac
p5506
I3685006
sV\u542f
p5507
I126083275
sV\u7545
p5508
I43580880
sV\u54c4
p5509
I7536909
sV\u89d2
p5510
I231063550
sV\u9057
p5511
I87115578
sV\u4f69
p5512
I28427157
sV\u86f8
p5513
I42894
sV\u88fc
p5514
I2
sV\u4ffe
p5515
I2
sV\u5783
p5516
I39734901
sV\u7504
p5517
I1780653
sV\u5987
p5518
I96336371
sV\u7f08
p5519
I1440295
sV\u7699
p5520
I2636045
sV\u591c
p5521
I187727316
sV\u62a1
p5522
I1
sV\u8c2a
p5523
I97854
sV\u7832
p5524
I8
sV\u5cb5
p5525
I1
sV\u643a
p5526
I32619324
sV\u8dbf
p5527
I77646
sV\u5a46
p5528
I73911592
sV\u5c4a
p5529
I97147546
sV\u814c
p5530
I1277534
sV\u65cf
p5531
I221029623
sV\u8d54
p5532
I38543221
sV\u795c
p5533
I210252
sV\u82e1
p5534
I195430
sV\u84e5
p5535
I80673
sV\u70ed
p5536
I455785169
sV\u516c
p5537
L2502937385L
sV\u5b70
p5538
I482175
sV\u66f9
p5539
I3177076
sV\u847a
p5540
I400164
sV\u5201
p5541
I2763728
sV\u7a86
p5542
I1
sV\u5296
p5543
I1
sV\u9798
p5544
I2720799
sV\u7b1b
p5545
I5698985
sV\u549a
p5546
I4683890
sV\u5e9e
p5547
I20180170
sV\u83a0
p5548
I711145
sV\u8fa8
p5549
I33009913
sV\u902d
p5550
I1
sV\u71ac
p5551
I7302448
sV\u552f
p5552
I71005219
sV\u67b8
p5553
I1750818
sV\u9cca
p5554
I60039
sV\u604d
p5555
I10674501
sV\u86ce
p5556
I568176
sV\u88d2
p5557
I1
sV\u6c55
p5558
I9882465
sV\u9157
p5559
I1277058
sV\u5659
p5560
I542619
sV\u7ede
p5561
I5378868
sV\u8763
p5562
I216709
sV\u6cea
p5563
I85964492
sV\u6177
p5564
I5452274
sV\u6b7b
p5565
I351899372
sV\u5e87
p5566
I2852642
sV\u878d
p5567
I122955535
sV\u660c
p5568
I25832379
sV\u7199
p5569
I10129608
sV\u5018
p5570
I4995779
sV\u7f9d
p5571
I1
sV\u5e1c
p5572
I6580176
sV\u991e
p5573
I1
sV\u65a1
p5574
I571052
sV\u8722
p5575
I223478
sV\u63a5
p5576
I859007347
sV\u8d26
p5577
I31569232
sV\u712e
p5578
I1
sV\u5bb5
p5579
I9427754
sV\u6536
p5580
I774564751
sV\u633a
p5581
I31305278
sV\u70c3
p5582
I776684
sV\u5742
p5583
I325423
sV\u7ec7
p5584
I274296018
sV\u62cf
p5585
I10
sV\u6868
p5586
I638824
sV\u77ed
p5587
I226251556
sV\u566c
p5588
I4284268
sV\u916e
p5589
I3344231
sV\u5a74
p5590
I24742799
sV\u5501
p5591
I397843
sV\u9003
p5592
I70794667
sV\u5305
p5593
I429337182
sV\u840b
p5594
I623038
sV\u618e
p5595
I2876289
sV\u6f92
p5596
I1
sV\u7617
p5597
I1
sV\u539a
p5598
I74294418
sV\u599e
p5599
I6859360
sV\u542b
p5600
I127996086
sV\u972d
p5601
I467733
sV\u60b8
p5602
I3742104
sV\u54c0
p5603
I27805300
sV\u7949
p5604
I465355
sV\u6d51
p5605
I21607971
sV\u8fd2
p5606
I1
sV\u5f5d
p5607
I1468243
sV\u67e2
p5608
I4
sV\u6de6
p5609
I33825
sV\u726f
p5610
I183789
sV\u6677
p5611
I76007
sV\u80f8
p5612
I66900276
sV\u5f87
p5613
I1121806
sV\u9889
p5614
I232737
sV\u868d
p5615
I41443
sV\u7099
p5616
I2872880
sV\u62a5
p5617
I901091662
sV\u8c26
p5618
I8206579
sV\u5cb1
p5619
I170455
sV\u8bbf
p5620
I229308315
sV\u683e
p5621
I455897
sV\u9540
p5622
I8005004
sV\u71c3
p5623
I56745137
sV\u65cb
p5624
I50757171
sV\u5a4a
p5625
I1138953
sV\u874c
p5626
I686991
sV\u63cf
p5627
I92819628
sV\u8d50
p5628
I9635560
sV\u4e52
p5629
I7338628
sV\u9edd
p5630
I2543632
sV\u5bdf
p5631
I160390486
sV\u82e5
p5632
I102875645
sV\u906e
p5633
I13622426
sV\u60f9
p5634
I18603371
sV\u827a
p5635
I248836827
sV\u4f7c
p5636
I3403048
sV\u887e
p5637
I8
sV\u5401
p5638
I14048420
sV\u7682
p5639
I4751014
sV\u830f
p5640
I337661
sV\u8913
p5641
I551755
sV\u5496
p5642
I32326944
sV\u529a
p5643
I3
sV\u589e
p5644
I431888031
sV\u6123
p5645
I15621174
sV\u77ac
p5646
I40200622
sV\u7bb4
p5647
I950592
sV\u8e3d
p5648
I158620
sV\u7441
p5649
I206366
sV\u80ce
p5650
I28625973
sV\u8f67
p5651
I4862337
sV\u97ec
p5652
I507969
sV\u50ee
p5653
I1
sV\u6777
p5654
I776039
sV\u7600
p5655
I1177542
sV\u8f91
p5656
I276033603
sV\u6e10
p5657
I105202176
sV\u9716
p5658
I1881165
sV\u5218
p5659
I31119847
sV\u892a
p5660
I3441792
sV\u90af
p5661
I4375676
sV\u732e
p5662
I120969408
sV\u6b3e
p5663
I384740442
sV\u9640
p5664
I4536031
sV\u9044
p5665
I1
sV\u60cf
p5666
I1
sV\u8e50
p5667
I9
sV\u8854
p5668
I69190124
sV\u54d7
p5669
I8848254
sV\u6064
p5670
I1650477
sV\u8be9
p5671
I825711
sV\u7ff1
p5672
I1892885
sV\u8776
p5673
I20736836
sV\u817a
p5674
I19777425
sV\u5b09
p5675
I4465425
sV\u638e
p5676
I4
sV\u4f11
p5677
I136920103
sV\u9c9c
p5678
I108410407
sV\u5b9e
p5679
I1489022654
sV\u80a4
p5680
I87078060
sV\u6c27
p5681
I32173882
sV\u4fa6
p5682
I22852860
sV\u952d
p5683
I753334
sV\u7eb0
p5684
I471741
sV\u78b4
p5685
I567141
sV\u8339
p5686
I345746
sV\u4e3b
p5687
I1870011447
sV\u8d3d
p5688
I131038
sV\u6cbc
p5689
I4598239
sV\u7741
p5690
I26040891
sV\u7145
p5691
I260682
sV\u50c4
p5692
I1
sV\u7b49
p5693
I699721317
sV\u65e2
p5694
I77934959
sV\u766b
p5695
I2942055
sV\u94ec
p5696
I1057526
sV\u706f
p5697
I102558046
sV\u53ee
p5698
I10816355
sV\u5df2
p5699
I744237621
sV\u9085
p5700
I1
sV\u7b08
p5701
I2947353
sV\u9616
p5702
I206699
sV\u901a
p5703
I1248477431
sV\u7c9d
p5704
I7
sV\u6aa9
p5705
I36546
sV\u97ab
p5706
I1
sV\u91af
p5707
I2
sV\u9b48
p5708
I78776
sV\u6bd3
p5709
I250872
sV\u9cdd
p5710
I712590
sV\u7d5c
p5711
I6
sV\u6760
p5712
I3953346
sV\u80e5
p5713
I323845
sV\u556c
p5714
I2256321
sV\u5f70
p5715
I14601222
sV\u5974
p5716
I14602812
sV\u6cfd
p5717
I40974960
sV\u5a09
p5718
I373362
sV\u810f
p5719
I33503774
sV\u4e11
p5720
I20411129
sV\u7f1b
p5721
I196166
sV\u6323
p5722
I23226852
sV\u4ea6
p5723
I24784891
sV\u8ba8
p5724
I163589957
sV\u9e31
p5725
I15
sV\u7fb0
p5726
I103341
sV\u8239
p5727
I66989596
sV\u63b8
p5728
I136095
sV\u94c2
p5729
I1101100
sV\u51c4
p5730
I13937123
sV\u7a49
p5731
I1
sV\u82ce
p5732
I273633
sV\u4fd0
p5733
I1696542
sV\u6855
p5734
I139028
sV\u9557
p5735
I408554
sV\u76d6
p5736
I62971036
sV\u7ade
p5737
I157385615
sV\u8363
p5738
I83202801
sV\u64e2
p5739
I112953
sV\u8d67
p5740
I604576
sV\u6ee6
p5741
I118974
sV\u776b
p5742
I6127911
sV\u6577
p5743
I4293364
sV\u8dfc
p5744
I7
sV\u9981
p5745
I1247633
sV\u9f85
p5746
I146982
sV\u4e8f
p5747
I29780878
sV\u8191
p5748
I253239
sV\u6614
p5749
I10349714
sV\u5c18
p5750
I44548767
sV\u6fa5
p5751
I1
sV\u4e24
p5752
I765354487
sV\u65a9
p5753
I7464383
sV\u94b3
p5754
I2424417
sV\u7332
p5755
I1
sV\u653e
p5756
I660902256
sV\u9e44
p5757
I168324
sV\u5146
p5758
I8954056
sV\u68cb
p5759
I27762850
sV\u574a
p5760
I15882613
sV\u8654
p5761
I3108586
sV\u56df
p5762
I60328
sV\u6860
p5763
I289786
sV\u8fe5
p5764
I1944152
sV\u85e9
p5765
I1416321
sV\u6df9
p5766
I6379692
sV\u63fd
p5767
I6239310
sV\u857e
p5768
I8600461
sV\u5509
p5769
I2330350
sV\u8e0f
p5770
I35061149
sV\u6d8e
p5771
I2067064
sV\u6392
p5772
I293838128
sV\u7a17
p5773
I34640
sV\u5996
p5774
I28452614
sV\u701b
p5775
I1220400
sV\u761f
p5776
I2326118
sV\u7aac
p5777
I3
sV\u9131
p5778
I713749
sV\u70b0
p5779
I1
sV\u8d39
p5780
I849796544
sV\u6cb8
p5781
I10110176
sV\u62bc
p5782
I19310474
sV\u7941
p5783
I4
sV\u7f45
p5784
I105867
sV\u54c8
p5785
I293119256
sV\u8dce
p5786
I519613
sV\u6151
p5787
I3703633
sV\u6755
p5788
I1
sV\u905b
p5789
I519851
sV\u7fda
p5790
I1
sV\u965f
p5791
I6
sV\u75de
p5792
I2590279
sV\u4f65
p5793
I1
sV\u61e6
p5794
I3836810
sV\u786b
p5795
I9388045
sV\u5dee
p5796
I169029122
sV\u7473
p5797
I1
sV\u53f2
p5798
I204743996
sV\u607b
p5799
I1100482
sV\u4ffa
p5800
I3658915
sV\u9881
p5801
I26168358
sV\u7f04
p5802
I1092916
sV\u9489
p5803
I8326236
sV\u4f8f
p5804
I2439573
sV\u8695
p5805
I4703203
sV\u6714
p5806
I2751549
sV\u6ea5
p5807
I424732
sV\u4f24
p5808
I234978809
sV\u8026
p5809
I1007095
sV\u64a9
p5810
I4189210
sV\u8bb7
p5811
I1335806
sV\u81bb
p5812
I81661
sV\u6e3a
p5813
I8114107
sV\u8150
p5814
I44575202
sV\u51db
p5815
I4780220
sV\u57df
p5816
I213934592
sV\u6960
p5817
I1264806
sV\u7aed
p5818
I13660084
sV\u5b6c
p5819
I287163
sV\u5170
p5820
I136911327
sV\u62fd
p5821
I1476822
sV\u9d03
p5822
I1
sV\u5e05
p5823
I40691448
sV\u7086
p5824
I43709
sV\u5409
p5825
I72952010
sV\u8513
p5826
I7428383
sV\u6292
p5827
I5556176
sV\u5e9a
p5828
I3365261
sV\u771f
p5829
I788025811
sV\u592b
p5830
I189169036
sV\u5f2f
p5831
I26513161
sV\u5533
p5832
I305751
sV\u9635
p5833
I124905640
sV\u8c39
p5834
I1
sV\u6db8
p5835
I1122217
sV\u63bc
p5836
I1
sV\u7841
p5837
I2
sV\u9ac2
p5838
I35842
sV\u6051
p5839
I1
sV\u82d2
p5840
I209792
sV\u6655
p5841
I24406572
sV\u5c59
p5842
I1
sV\u7eda
p5843
I5888107
sV\u74de
p5844
I1
sV\u8d63
p5845
I1000587
sV\u8367
p5846
I7121137
sV\u60e6
p5847
I2079659
sV\u677f
p5848
I290896961
sV\u7a00
p5849
I28558385
sV\u6210
p5850
I1922413520
sV\u6414
p5851
I1365671
sV\u5e18
p5852
I11130983
sV\u501c
p5853
I269487
sV\u971e
p5854
I11781978
sV\u6ba1
p5855
I2101772
sV\u7f2e
p5856
I1388436
sV\u96b3
p5857
I6
sV\u55b5
p5858
I2434540
sV\u88b7
p5859
I1
sV\u84bf
p5860
I607996
sV\u7ec3
p5861
I161398256
sV\u5942
p5862
I2
sV\u9648
p5863
I52322249
sV\u554a
p5864
I77346778
sV\u884c
p5865
L2422915725L
sV\u4f4e
p5866
I300339222
sV\u54df
p5867
I2971218
sV\u8be1
p5868
I11085724
sV\u4ee3
p5869
I885192437
sV\u6c64
p5870
I23188790
sV\u6668
p5871
I47825827
sV\u79ed
p5872
I282314
sV\u9172
p5873
I1
sV\u5474
p5874
I3
sV\u877e
p5875
I65215
sV\u8c0f
p5876
I581566
sV\u6f8e
p5877
I3822044
sV\u6e23
p5878
I4873131
sV\u8ca4
p5879
I1
sV\u6027
p5880
I1238070968
sV\u9535
p5881
I1934894
sV\u60bc
p5882
I3598320
sV\u8fce
p5883
I269842451
sV\u6555
p5884
I139062
sV\u5fee
p5885
I1
sV\u80fc
p5886
I4
sV\u9a81
p5887
I842565
sV\u9c85
p5888
I55048
sV\u7708
p5889
I2231094
sV\u888d
p5890
I9840400
sV\u5f18
p5891
I6554536
sV\u8822
p5892
I10467816
sV\u6ca5
p5893
I4873414
sV\u52b1
p5894
I76992870
sV\u4eb9
p5895
I2
sV\u663e
p5896
I450504116
sV\u9b40
p5897
I1
sV\u6bcb
p5898
I2008088
sV\u544a
p5899
I756032505
sV\u4e4e
p5900
I203206251
sV\u8350
p5901
I287187276
sV\u67d3
p5902
I100145300
sV\u59d7
p5903
I2595717
sV\u53db
p5904
I18070583
sV\u90dd
p5905
I241489
sV\u55df
p5906
I207236
sV\u6b60
p5907
I6
sV\u6768
p5908
I21283392
sV\u72f1
p5909
I31230192
sV\u5370
p5910
I238216011
sV\u6ef9
p5911
I63985
sV\u8c7a
p5912
I679306
sV\u867e
p5913
I12418822
sV\u5a01
p5914
I252075678
sV\u5609
p5915
I24485090
sV\u8713
p5916
I3128249
sV\u6092
p5917
I2
sV\u731b
p5918
I49179764
sV\u5c9a
p5919
I1321112
sV\u751f
p5920
L2792774170L
sV\u6127
p5921
I17302559
sV\u87a8
p5922
I313946
sV\u73b0
p5923
I1757434080
sV\u5733
p5924
I138641492
sV\u75b4
p5925
I97415
sV\u8e39
p5926
I830234
sV\u803d
p5927
I7716270
sV\u6251
p5928
I34503737
sV\u7ad6
p5929
I7089627
sV\u5e59
p5930
I1
sV\u8167
p5931
I1
sV\u62e6
p5932
I18117034
sV\u95f4
p5933
I1845279152
sV\u6977
p5934
I2939054
sV\u8ff8
p5935
I2003288
sV\u637b
p5936
I154862
sV\u81fc
p5937
I663582
sV\u5883
p5938
I417793173
sV\u9189
p5939
I35661563
sV\u8f8d
p5940
I1627922
sV\u6410
p5941
I2234902
sV\u911e
p5942
I897180
sV\u6da1
p5943
I6582925
sV\u61a9
p5944
I1684921
sV\u9cab
p5945
I1054821
sV\u5fad
p5946
I111897
sV\u55b1
p5947
I992779
sV\u6b3a
p5948
I30878746
sV\u5546
p5949
I1033458476
sV\u534a
p5950
I246127565
sV\u60d3
p5951
I1
sV\u765c
p5952
I2218366
sV\u52df
p5953
I11288160
sV\u6c60
p5954
I65419752
sV\u8be5
p5955
I404332494
sV\u6068
p5956
I43437926
sV\u996e
p5957
I85028170
sV\u75f1
p5958
I245262
sV\u8d76
p5959
I102736079
sV\u67fd
p5960
I34961
sV\u817e
p5961
I46266813
sV\u7586
p5962
I32613029
sV\u8c0b
p5963
I44978968
sV\u4f0d
p5964
I51424154
sV\u9898
p5965
I1162046980
sV\u741b
p5966
I617494
sV\u5b9a
p5967
I1410914122
sV\u969c
p5968
I117211820
sV\u6627
p5969
I10271979
sV\u7eac
p5970
I4120287
sV\u9531
p5971
I109413
sV\u72b4
p5972
I1
sV\u6f4d
p5973
I5487751
sV\u89ce
p5974
I1143936
sV\u6551
p5975
I120346352
sV\u87d2
p5976
I1436070
sV\u6355
p5977
I32796236
sV\u9e57
p5978
I5
sV\u575d
p5979
I4201214
sV\u8863
p5980
I203262672
sV\u65e6
p5981
I56240303
sV\u63ea
p5982
I3461184
sV\u94f0
p5983
I697210
sV\u88f8
p5984
I30888791
sV\u627f
p5985
I218669526
sV\u9c81
p5986
I46703525
sV\u5983
p5987
I6744615
sV\u9a85
p5988
I35881
sV\u7b04
p5989
I1
sV\u571c
p5990
I169003
sV\u901e
p5991
I3298551
sV\u6ca1
p5992
I1446330799
sV\u8e22
p5993
I12596630
sV\u8426
p5994
I1810905
sV\u822a
p5995
I166118750
sV\u5ead
p5996
I128487387
sV\u54b1
p5997
I26086418
sV\u79c3
p5998
I4695621
sV\u9b44
p5999
I11761729
sV\u5446
p6000
I45898707
sV\u6dcb
p6001
I24701042
sV\u524a
p6002
I12194734
sV\u6bcf
p6003
I502931958
sV\u8354
p6004
I2298080
sV\u5fd7
p6005
I236053121
sV\u98d9
p6006
I5855678
sV\u53df
p6007
I380334
sV\u6b64
p6008
I840197591
sV\u6168
p6009
I15489461
sV\u7eed
p6010
I321792971
sV\u5f6c
p6011
I4139110
sV\u5570
p6012
I3
sV\u9672
p6013
I592439
sV\u5374
p6014
I205848198
sV\u68f9
p6015
I1
sV\u5c01
p6016
I112353342
sV\u7e82
p6017
I909932
sV\u5a05
p6018
I168618
sV\u9707
p6019
I66976460
sV\u728a
p6020
I657780
sV\u4e0d
p6021
L7052620611L
sV\u8113
p6022
I1867563
sV\u5c96
p6023
I1368928
sV\u9998
p6024
I2
sV\u5a9a
p6025
I18728588
sV\u4ea2
p6026
I8112809
sV\u8ba4
p6027
I591462459
sV\u81a8
p6028
I9098316
sV\u9e2d
p6029
I10740428
sV\u8839
p6030
I40599
sV\u7c41
p6031
I5362857
sV\u7a45
p6032
I2
sV\u5bc4
p6033
I34705521
sV\u94c6
p6034
I1587192
sV\u6e4d
p6035
I725798
sV\u88ce
p6036
I2
sV\u7cd6
p6037
I55665397
sV\u955b
p6038
I45432
sV\u64e6
p6039
I32759002
sV\u7d6b
p6040
I4
sV\u58ee
p6041
I46790807
sV\u95f0
p6042
I421269
sV\u9985
p6043
I2188068
sV\u4e8b
p6044
I1430977519
sV\u6014
p6045
I9649861
sV\u5a18
p6046
I71987127
sV\u759d
p6047
I286564
sV\u6fa1
p6048
I12338033
sV\u8d22
p6049
I275949757
sV\u63a9
p6050
I27222091
sV\u7532
p6051
I83596891
sV\u51b5
p6052
I380602909
sV\u80bf
p6053
I27719175
sV\u6ecb
p6054
I47833550
sV\u8c4c
p6055
I1257961
sV\u8650
p6056
I10595037
sV\u62d3
p6057
I39947847
sV\u8054
p6058
I919966582
sV\u56db
p6059
I512523666
sV\u745c
p6060
I7198962
sV\u89e5
p6061
I158959
sV\u83e9
p6062
I10697632
sV\u8f76
p6063
I1048511
sV\u9a03
p6064
I3
sV\u718a
p6065
I27544392
sV\u949c
p6066
I11
sV\u88a4
p6067
I763153
sV\u6427
p6068
I1
sV\u82a8
p6069
I103009
sV\u5233
p6070
I11
sV\u853d
p6071
I18146600
sV\u64bc
p6072
I13801355
sV\u91ca
p6073
I97429797
sV\u6d4d
p6074
I1
sV\u8bce
p6075
I6
sV\u6751
p6076
I177274618
sV\u6155
p6077
I27634837
sV\u5b59
p6078
I28079952
sV\u965b
p6079
I6296078
sV\u73de
p6080
I823461
sV\u5bee
p6081
I57573
sV\u55f2
p6082
I661154
sV\u90f4
p6083
I1698915
sV\u84fc
p6084
I2
sV\u607f
p6085
I1077662
sV\u7f00
p6086
I6920333
sV\u5b83
p6087
I358296534
sV\u9885
p6088
I3649153
sV\u5587
p6089
I8383137
sV\u4f8b
p6090
I226115423
sV\u8c8d
p6091
I1
sV\u6d0c
p6092
I1
sV\u4f20
p6093
I755274204
sV\u8c22
p6094
I401856008
sV\u5cad
p6095
I9059845
sV\u623e
p6096
I980306
sV\u5c42
p6097
I212765852
sV\u75c7
p6098
I61241517
sV\u8d4c
p6099
I23698457
sV\u8154
p6100
I21839027
sV\u94dd
p6101
I16086081
sV\u755c
p6102
I15737978
sV\u6f60
p6103
I1
sV\u5d6c
p6104
I165792
sV\u9a6e
p6105
I434442
sV\u76f1
p6106
I1
sV\u5174
p6107
I219906211
sV\u8e76
p6108
I547179
sV\u827e
p6109
I34404412
sV\u5e01
p6110
I161440763
sV\u9b03
p6111
I415108
sV\u7686
p6112
I18536872
sV\u708a
p6113
I2229484
sV\u6492
p6114
I20232757
sV\u5e96
p6115
I285879
sV\u529e
p6116
I539536040
sV\u6b23
p6117
I76311200
sV\u6527
p6118
I1
sV\u83a8
p6119
I133210
sV\u592f
p6120
I1250351
sV\u9631
p6121
I10125816
sV\u77b0
p6122
I1616635
sV\u9035
p6123
I535150
sV\u843d
p6124
I306374869
sV\u65bc
p6125
I52560008
sV\u7e41
p6126
I73989337
sV\u7845
p6127
I10501040
sV\u96c6
p6128
I502394936
sV\u53c8
p6129
I309555486
sV\u90ca
p6130
I16524595
sV\u6055
p6131
I4530408
sV\u975b
p6132
I344717
sV\u72de
p6133
I4026126
sV\u4e61
p6134
I96587544
sV\u6ce2
p6135
I154074780
sV\u66e6
p6136
I2037197
sV\u796f
p6137
I1019456
sV\u54f2
p6138
I24666019
sV\u6d77
p6139
I765164162
sV\u4ef6
p6140
I1829372361
sV\u8bf8
p6141
I44080166
s.